(dp1
S'Data Sampler'
p2
S"(dp1\nS'CVFolds'\np2\nI10\nsS'widgetXPosition'\np3\nI59\nsS'widgetYPosition'\np4\nI24\nsS'LOO'\np5\nI1\nsS'widgetWidth'\np6\nI316\nsS'selPercentage'\np7\nI80\nsS'Repeat'\np8\nI0\nsS'RandomSeed'\np9\nI1\nsS'pGroups'\np10\n(lp11\nF0.10000000000000001\naF0.25\naF0.5\nasS'widgetHeight'\np12\nI684\nsS'SelectType'\np13\nI0\nsS'savedWidgetGeometry'\np14\nS'\\x01\\xd9\\xd0\\xcb\\x00\\x01\\x00\\x00\\x00\\x00\\x00;\\x00\\x00\\x00\\x18\\x00\\x00\\x01\\x86\\x00\\x00\\x02\\xe8\\x00\\x00\\x00C\\x00\\x00\\x005\\x00\\x00\\x01~\\x00\\x00\\x02\\xe0\\x00\\x00\\x00\\x00\\x00\\x00'\np15\nsS'nGroups'\np16\nI3\nsS'widgetShown'\np17\nI0\nsS'GroupSeed'\np18\nI1\nsS'Stratified'\np19\nI1\nsS'outFold'\np20\nI1\nsS'useCases'\np21\nI0\nsS'localContextsVersion'\np22\n(I100\nI0\ntp23\nsS'localContexts'\np24\n(lp25\n(iOWContexts\nContext\np26\n(dp27\nS'metas'\np28\n(dp29\nsS'values'\np30\n(dp31\nS'nCases'\np32\n(I25\nI-2\ntp33\nsg7\n(I80\nI-2\ntp34\nssS'time'\np35\nF1338205671.678453\nsS'attributes'\np36\n(dp37\nS'sc'\np38\ncorange\n__pickleLoaderNamedConstants\np39\n(S'Variable_Type'\n(I2\nttRp40\nsS'lefr'\np41\ng39\n(S'Variable_Type'\n(I2\nttRp42\nsS'type'\np43\ng39\n(S'Variable_Type'\n(I1\nttRp44\nsS'name'\np45\ng39\n(S'Variable_Type'\n(I1\nttRp46\nsS'zcr'\np47\ng39\n(S'Variable_Type'\n(I2\nttRp48\nssS'noCopy'\np49\n(lp50\nS'orderedDomain'\np51\nasba(iOWContexts\nContext\np52\n(dp53\ng30\n(dp54\nS'nCases'\np55\n(I25\nI-2\ntp56\nsS'selPercentage'\np57\n(I80\nI-2\ntp58\nssg36\n(dp59\nS'57.958979'\np60\ng39\n(S'Variable_Type'\n(I1\nttRp61\nsS'428.000000'\np62\ng39\n(S'Variable_Type'\n(I1\nttRp63\nsS'ristorante_02_000_000'\np64\ng39\n(S'Variable_Type'\n(I1\nttRp65\nsS'0.190071'\np66\ng39\n(S'Variable_Type'\n(I1\nttRp67\nsS'ristorante'\np68\ng39\n(S'Variable_Type'\n(I1\nttRp69\nssg28\n(dp70\nsg49\n(lp71\nS'orderedDomain'\np72\nasg35\nF1338205027.345752\nsba(iOWContexts\nContext\np73\n(dp74\ng30\n(dp75\nS'nCases'\np76\n(I25\nI-2\ntp77\nsS'selPercentage'\np78\n(I80\nI-2\ntp79\nssg36\n(dp80\nS'sc'\np81\ng39\n(S'Variable_Type'\n(I2\nttRp82\nsS'zcf'\np83\ng39\n(S'Variable_Type'\n(I2\nttRp84\nsS'type'\np85\ng39\n(S'Variable_Type'\n(I1\nttRp86\nsS'name'\np87\ng39\n(S'Variable_Type'\n(I1\nttRp88\nsS'miao'\np89\ng39\n(S'Variable_Type'\n(I2\nttRp90\nssg28\n(dp91\nsg49\n(lp92\nS'orderedDomain'\np93\nasg35\nF1338202166.0363269\nsba(iOWContexts\nContext\np94\n(dp95\ng30\n(dp96\nS'nCases'\np97\n(I25\nI-2\ntp98\nsS'selPercentage'\np99\n(I80\nI-2\ntp100\nssg36\n(dp101\nS'94.125089'\np102\ng39\n(S'Variable_Type'\n(I1\nttRp103\nsS'0.297872'\np104\ng39\n(S'Variable_Type'\n(I1\nttRp105\nsS'strada'\np106\ng39\n(S'Variable_Type'\n(I1\nttRp107\nsS'477.000000'\np108\ng39\n(S'Variable_Type'\n(I1\nttRp109\nsS'strada_02_000_000'\np110\ng39\n(S'Variable_Type'\n(I1\nttRp111\nssg28\n(dp112\nsg49\n(lp113\nS'orderedDomain'\np114\nasg35\nF1338194433.506546\nsba(iOWContexts\nContext\np115\n(dp116\ng49\n(lp117\nS'orderedDomain'\np118\nasg36\n(dp119\nS'handicapped-infants'\np120\ng39\n(S'Variable_Type'\n(I1\nttRp121\nsS'water-project-cost-sharing'\np122\ng39\n(S'Variable_Type'\n(I1\nttRp123\nsS'education-spending'\np124\ng39\n(S'Variable_Type'\n(I1\nttRp125\nsS'adoption-of-the-budget-resolution'\np126\ng39\n(S'Variable_Type'\n(I1\nttRp127\nsS'immigration'\np128\ng39\n(S'Variable_Type'\n(I1\nttRp129\nsS'crime'\np130\ng39\n(S'Variable_Type'\n(I1\nttRp131\nsS'el-salvador-aid'\np132\ng39\n(S'Variable_Type'\n(I1\nttRp133\nsS'superfund-right-to-sue'\np134\ng39\n(S'Variable_Type'\n(I1\nttRp135\nsS'synfuels-corporation-cutback'\np136\ng39\n(S'Variable_Type'\n(I1\nttRp137\nsS'religious-groups-in-schools'\np138\ng39\n(S'Variable_Type'\n(I1\nttRp139\nsS'mx-missile'\np140\ng39\n(S'Variable_Type'\n(I1\nttRp141\nsS'anti-satellite-test-ban'\np142\ng39\n(S'Variable_Type'\n(I1\nttRp143\nsS'duty-free-exports'\np144\ng39\n(S'Variable_Type'\n(I1\nttRp145\nsS'party'\np146\ng39\n(S'Variable_Type'\n(I1\nttRp147\nsS'export-administration-act-south-africa'\np148\ng39\n(S'Variable_Type'\n(I1\nttRp149\nsS'aid-to-nicaraguan-contras'\np150\ng39\n(S'Variable_Type'\n(I1\nttRp151\nsS'physician-fee-freeze'\np152\ng39\n(S'Variable_Type'\n(I1\nttRp153\nssg28\n(dp154\nsg30\n(dp155\nS'nCases'\np156\n(I25\nI-2\ntp157\nsS'selPercentage'\np158\n(I80\nI-2\ntp159\nssg35\nF1338144736.288969\nsba(iOWContexts\nContext\np160\n(dp161\ng30\n(dp162\nS'nCases'\np163\n(I25\nI-2\ntp164\nsS'selPercentage'\np165\n(I80\nI-2\ntp166\nssg36\n(dp167\nS'sc'\np168\ng39\n(S'Variable_Type'\n(I2\nttRp169\nsS'lefr'\np170\ng39\n(S'Variable_Type'\n(I2\nttRp171\nsS'tipo'\np172\ng39\n(S'Variable_Type'\n(I1\nttRp173\nsS'zcr'\np174\ng39\n(S'Variable_Type'\n(I2\nttRp175\nssg28\n(dp176\nsg49\n(lp177\nS'orderedDomain'\np178\nasg35\nF1337963609.9601851\nsba(iOWContexts\nContext\np179\n(dp180\ng49\n(lp181\ng178\nasg36\n(dp182\nS'sc'\np183\ng39\n(S'Variable_Type'\n(I2\nttRp184\nsS'lefr'\np185\ng39\n(S'Variable_Type'\n(I2\nttRp186\nsS'name'\np187\ng39\n(S'Variable_Type'\n(I1\nttRp188\nsS'zcr'\np189\ng39\n(S'Variable_Type'\n(I2\nttRp190\nsS'tipo'\np191\ng39\n(S'Variable_Type'\n(I1\nttRp192\nssg28\n(dp193\nsg30\n(dp194\nS'nCases'\np195\n(I25\nI-2\ntp196\nsS'selPercentage'\np197\n(I80\nI-2\ntp198\nssg35\nF1337859161.3422561\nsba(iOWContexts\nContext\np199\n(dp200\ng49\n(lp201\nS'orderedDomain'\np202\nasg36\n(dp203\nS'sc'\np204\ng39\n(S'Variable_Type'\n(I1\nttRp205\nsS'lefr'\np206\ng39\n(S'Variable_Type'\n(I1\nttRp207\nsS'zcr'\np208\ng39\n(S'Variable_Type'\n(I1\nttRp209\nsS'tipo'\np210\ng39\n(S'Variable_Type'\n(I1\nttRp211\nssg28\n(dp212\nsg30\n(dp213\nS'nCases'\np214\n(I25\nI-2\ntp215\nsS'selPercentage'\np216\n(I80\nI-2\ntp217\nssg35\nF1337503306.200057\nsba(iOWContexts\nContext\np218\n(dp219\ng30\n(dp220\nS'nCases'\np221\n(I25\nI-2\ntp222\nsS'selPercentage'\np223\n(I80\nI-2\ntp224\nssg36\n(dp225\nS'sc'\np226\ng39\n(S'Variable_Type'\n(I1\nttRp227\nsS'lefr'\np228\ng39\n(S'Variable_Type'\n(I1\nttRp229\nsS'tipo'\np230\ng39\n(S'Variable_Type'\n(I1\nttRp231\nsS'zcr'\np232\ng39\n(S'Variable_Type'\n(I1\nttRp233\nssg28\n(dp234\nsg49\n(lp235\ng202\nasg35\nF1337289207.759084\nsba(iOWContexts\nContext\np236\n(dp237\ng30\n(dp238\ng221\n(I25\nI-2\ntp239\nsg223\n(I80\nI-2\ntp240\nssg36\n(dp241\nS'campione'\np242\ng39\n(S'Variable_Type'\n(I1\nttRp243\nsS'sc'\np244\ng39\n(S'Variable_Type'\n(I1\nttRp245\nsS'tipo'\np246\ng39\n(S'Variable_Type'\n(I1\nttRp247\nsS'zcr'\np248\ng39\n(S'Variable_Type'\n(I1\nttRp249\nsS'lefr'\np250\ng39\n(S'Variable_Type'\n(I1\nttRp251\nssg28\n(dp252\nsg49\n(lp253\nS'orderedDomain'\np254\nasg35\nF1337288919.2393811\nsba(iOWContexts\nContext\np255\n(dp256\ng49\n(lp257\nS'orderedDomain'\np258\nasg36\n(dp259\nS'campione'\np260\ng39\n(S'Variable_Type'\n(I1\nttRp261\nsS'sc'\np262\ng39\n(S'Variable_Type'\n(I1\nttRp263\nsS'zcr'\np264\ng39\n(S'Variable_Type'\n(I1\nttRp265\nsS'tipo'\np266\ng39\n(S'Variable_Type'\n(I1\nttRp267\nsS'lefr'\np268\ng39\n(S'Variable_Type'\n(I1\nttRp269\nssg28\n(dp270\nsg30\n(dp271\nS'nCases'\np272\n(I25\nI-2\ntp273\nsS'selPercentage'\np274\n(I70\nI-2\ntp275\nssg35\nF1337195048.6201329\nsba(iOWContexts\nContext\np276\n(dp277\ng30\n(dp278\nS'nCases'\np279\n(I25\nI-2\ntp280\nsS'selPercentage'\np281\n(I80\nI-2\ntp282\nssg36\n(dp283\nS'handicapped-infants'\np284\ng39\n(S'Variable_Type'\n(I1\nttRp285\nsS'superfund-right-to-sue'\np286\ng39\n(S'Variable_Type'\n(I1\nttRp287\nsS'duty-free-exports'\np288\ng39\n(S'Variable_Type'\n(I1\nttRp289\nsS'aid-to-nicaraguan-contras'\np290\ng39\n(S'Variable_Type'\n(I1\nttRp291\nsS'immigration'\np292\ng39\n(S'Variable_Type'\n(I1\nttRp293\nsS'crime'\np294\ng39\n(S'Variable_Type'\n(I1\nttRp295\nsS'el-salvador-aid'\np296\ng39\n(S'Variable_Type'\n(I1\nttRp297\nsS'education-spending'\np298\ng39\n(S'Variable_Type'\n(I1\nttRp299\nsS'synfuels-corporation-cutback'\np300\ng39\n(S'Variable_Type'\n(I1\nttRp301\nsS'religious-groups-in-schools'\np302\ng39\n(S'Variable_Type'\n(I1\nttRp303\nsS'mx-missile'\np304\ng39\n(S'Variable_Type'\n(I1\nttRp305\nsS'anti-satellite-test-ban'\np306\ng39\n(S'Variable_Type'\n(I1\nttRp307\nsS'water-project-cost-sharing'\np308\ng39\n(S'Variable_Type'\n(I1\nttRp309\nsS'party'\np310\ng39\n(S'Variable_Type'\n(I1\nttRp311\nsS'export-administration-act-south-africa'\np312\ng39\n(S'Variable_Type'\n(I1\nttRp313\nsS'adoption-of-the-budget-resolution'\np314\ng39\n(S'Variable_Type'\n(I1\nttRp315\nsS'physician-fee-freeze'\np316\ng39\n(S'Variable_Type'\n(I1\nttRp317\nssg28\n(dp318\nsg49\n(lp319\nS'orderedDomain'\np320\nasg35\nF1337161898.4979761\nsba(iOWContexts\nContext\np321\n(dp322\ng30\n(dp323\nS'nCases'\np324\n(I25\nI-2\ntp325\nsS'selPercentage'\np326\n(I80\nI-2\ntp327\nssg36\n(dp328\nS'campione'\np329\ng39\n(S'Variable_Type'\n(I1\nttRp330\nsS'sc'\np331\ng39\n(S'Variable_Type'\n(I1\nttRp332\nsS'tipo'\np333\ng39\n(S'Variable_Type'\n(I1\nttRp334\nsS'zcr'\np335\ng39\n(S'Variable_Type'\n(I1\nttRp336\nsS'lefr'\np337\ng39\n(S'Variable_Type'\n(I1\nttRp338\nssg28\n(dp339\nsg49\n(lp340\nS'orderedDomain'\np341\nasg35\nF1337158860.534095\nsba(iOWContexts\nContext\np342\n(dp343\ng30\n(dp344\nS'nCases'\np345\n(I25\nI-2\ntp346\nsS'selPercentage'\np347\n(I60\nI-2\ntp348\nssg36\n(dp349\nS'mode'\np350\ng39\n(S'Variable_Type'\n(I6\nttRp351\nssg28\n(dp352\nsg49\n(lp353\nS'orderedDomain'\np354\nasg35\nF1336575571.0157909\nsba(iOWContexts\nContext\np355\n(dp356\ng49\n(lp357\nS'orderedDomain'\np358\nasg36\n(dp359\nS'mode'\np360\ng39\n(S'Variable_Type'\n(I6\nttRp361\nssg28\n(dp362\nsg30\n(dp363\nS'nCases'\np364\n(I25\nI-2\ntp365\nsS'selPercentage'\np366\n(I60\nI-2\ntp367\nssg35\nF1336575571.0157909\nsba(iOWContexts\nContext\np368\n(dp369\ng30\n(dp370\nS'nCases'\np371\n(I25\nI-2\ntp372\nsS'selPercentage'\np373\n(I60\nI-2\ntp374\nssg36\n(dp375\nS'mode'\np376\ng39\n(S'Variable_Type'\n(I6\nttRp377\nssg28\n(dp378\nsg49\n(lp379\nS'orderedDomain'\np380\nasg35\nF1336575571.0157909\nsba(iOWContexts\nContext\np381\n(dp382\ng49\n(lp383\nS'orderedDomain'\np384\nasg36\n(dp385\nS'mode'\np386\ng39\n(S'Variable_Type'\n(I6\nttRp387\nssg28\n(dp388\nsg30\n(dp389\nS'nCases'\np390\n(I25\nI-2\ntp391\nsS'selPercentage'\np392\n(I60\nI-2\ntp393\nssg35\nF1336575477.553946\nsba(iOWContexts\nContext\np394\n(dp395\ng30\n(dp396\nS'nCases'\np397\n(I25\nI-2\ntp398\nsS'selPercentage'\np399\n(I60\nI-2\ntp400\nssg36\n(dp401\nS'mode'\np402\ng39\n(S'Variable_Type'\n(I6\nttRp403\nssg28\n(dp404\nsg49\n(lp405\nS'orderedDomain'\np406\nasg35\nF1336575477.553946\nsba(iOWContexts\nContext\np407\n(dp408\ng49\n(lp409\nS'orderedDomain'\np410\nasg36\n(dp411\nS'mode'\np412\ng39\n(S'Variable_Type'\n(I6\nttRp413\nssg28\n(dp414\nsg30\n(dp415\nS'nCases'\np416\n(I25\nI-2\ntp417\nsS'selPercentage'\np418\n(I60\nI-2\ntp419\nssg35\nF1336575477.553946\nsba(iOWContexts\nContext\np420\n(dp421\ng49\n(lp422\nS'orderedDomain'\np423\nasg36\n(dp424\nS'typed'\np425\ng39\n(S'Variable_Type'\n(I6\nttRp426\nsS'mode'\np427\ng39\n(S'Variable_Type'\n(I6\nttRp428\nssg28\n(dp429\nsg30\n(dp430\nS'nCases'\np431\n(I25\nI-2\ntp432\nsS'selPercentage'\np433\n(I60\nI-2\ntp434\nssg35\nF1336569863.031791\nsba(iOWContexts\nContext\np435\n(dp436\ng49\n(lp437\nS'orderedDomain'\np438\nasg36\n(dp439\nS'typed'\np440\ng39\n(S'Variable_Type'\n(I6\nttRp441\nsS'mode'\np442\ng39\n(S'Variable_Type'\n(I6\nttRp443\nssg28\n(dp444\nsg30\n(dp445\nS'nCases'\np446\n(I25\nI-2\ntp447\nsS'selPercentage'\np448\n(I60\nI-2\ntp449\nssg35\nF1336569863.031791\nsba(iOWContexts\nContext\np450\n(dp451\ng30\n(dp452\nS'nCases'\np453\n(I25\nI-2\ntp454\nsS'selPercentage'\np455\n(I60\nI-2\ntp456\nssg36\n(dp457\nS'typed'\np458\ng39\n(S'Variable_Type'\n(I6\nttRp459\nsS'mode'\np460\ng39\n(S'Variable_Type'\n(I6\nttRp461\nssg28\n(dp462\nsg49\n(lp463\nS'orderedDomain'\np464\nasg35\nF1336569863.031791\nsba(iOWContexts\nContext\np465\n(dp466\ng30\n(dp467\nS'nCases'\np468\n(I25\nI-2\ntp469\nsS'selPercentage'\np470\n(I60\nI-2\ntp471\nssg36\n(dp472\nS'typed'\np473\ng39\n(S'Variable_Type'\n(I6\nttRp474\nsS'mode'\np475\ng39\n(S'Variable_Type'\n(I6\nttRp476\nssg28\n(dp477\nsg49\n(lp478\nS'orderedDomain'\np479\nasg35\nF1336569863.031791\nsba(iOWContexts\nContext\np480\n(dp481\ng49\n(lp482\nS'orderedDomain'\np483\nasg36\n(dp484\nS'typed'\np485\ng39\n(S'Variable_Type'\n(I6\nttRp486\nsS'mode'\np487\ng39\n(S'Variable_Type'\n(I6\nttRp488\nssg28\n(dp489\nsg30\n(dp490\nS'nCases'\np491\n(I25\nI-2\ntp492\nsS'selPercentage'\np493\n(I60\nI-2\ntp494\nssg35\nF1336569863.031791\nsba(iOWContexts\nContext\np495\n(dp496\ng49\n(lp497\nS'orderedDomain'\np498\nasg36\n(dp499\nS'typed'\np500\ng39\n(S'Variable_Type'\n(I6\nttRp501\nsS'mode'\np502\ng39\n(S'Variable_Type'\n(I6\nttRp503\nssg28\n(dp504\nsg30\n(dp505\nS'nCases'\np506\n(I25\nI-2\ntp507\nsS'selPercentage'\np508\n(I60\nI-2\ntp509\nssg35\nF1336569863.031791\nsba(iOWContexts\nContext\np510\n(dp511\ng49\n(lp512\ng384\nasg36\n(dp513\nS'typed'\np514\ng39\n(S'Variable_Type'\n(I6\nttRp515\nsS'mode'\np516\ng39\n(S'Variable_Type'\n(I6\nttRp517\nssg28\n(dp518\nsg30\n(dp519\ng431\n(I25\nI-2\ntp520\nsg433\n(I60\nI-2\ntp521\nssg35\nF1336569405.7775619\nsba(iOWContexts\nContext\np522\n(dp523\ng49\n(lp524\ng354\nasg36\n(dp525\nS'typed'\np526\ng39\n(S'Variable_Type'\n(I6\nttRp527\nsS'mode'\np528\ng39\n(S'Variable_Type'\n(I6\nttRp529\nssg28\n(dp530\nsg30\n(dp531\ng446\n(I25\nI-2\ntp532\nsg448\n(I60\nI-2\ntp533\nssg35\nF1336569405.7775619\nsba(iOWContexts\nContext\np534\n(dp535\ng30\n(dp536\ng453\n(I25\nI-2\ntp537\nsg455\n(I60\nI-2\ntp538\nssg36\n(dp539\nS'typed'\np540\ng39\n(S'Variable_Type'\n(I6\nttRp541\nsS'mode'\np542\ng39\n(S'Variable_Type'\n(I6\nttRp543\nssg28\n(dp544\nsg49\n(lp545\ng406\nasg35\nF1336569405.7775619\nsba(iOWContexts\nContext\np546\n(dp547\ng30\n(dp548\ng468\n(I25\nI-2\ntp549\nsg470\n(I60\nI-2\ntp550\nssg36\n(dp551\nS'typed'\np552\ng39\n(S'Variable_Type'\n(I6\nttRp553\nsS'mode'\np554\ng39\n(S'Variable_Type'\n(I6\nttRp555\nssg28\n(dp556\nsg49\n(lp557\ng358\nasg35\nF1336569405.7775619\nsba(iOWContexts\nContext\np558\n(dp559\ng49\n(lp560\ng410\nasg36\n(dp561\nS'typed'\np562\ng39\n(S'Variable_Type'\n(I6\nttRp563\nsS'mode'\np564\ng39\n(S'Variable_Type'\n(I6\nttRp565\nssg28\n(dp566\nsg30\n(dp567\ng491\n(I25\nI-2\ntp568\nsg493\n(I60\nI-2\ntp569\nssg35\nF1336569405.7775619\nsba(iOWContexts\nContext\np570\n(dp571\ng49\n(lp572\ng380\nasg36\n(dp573\nS'typed'\np574\ng39\n(S'Variable_Type'\n(I6\nttRp575\nsS'mode'\np576\ng39\n(S'Variable_Type'\n(I6\nttRp577\nssg28\n(dp578\nsg30\n(dp579\ng506\n(I25\nI-2\ntp580\nsg508\n(I60\nI-2\ntp581\nssg35\nF1336569405.7775619\nsbasg32\nI25\nsS'Folds'\np582\nI1\nsS'UseSpecificSeed'\np583\nI0\nsS'GroupText'\np584\nS'0.1,0.25,0.5'\np585\nsS'CVFoldsInternal'\np586\nI10\ns."
p3
sS'Test Learners'
p4
S"(dp1\nS'selectedCScores'\np2\nccopy_reg\n_reconstructor\np3\n(c__builtin__\nlist\np4\ng4\n(ttRp5\nI0\naI1\naI2\naI3\naI8\nasS'localContextsVersion'\np6\n(I100\nI0\ntp7\nsS'selectedRScores'\np8\ng3\n(g4\ng4\n(ttRp9\nI1\naI4\naI6\nasS'pLearning'\np10\nI70\nsS'widgetHeight'\np11\nI678\nsS'widgetXPosition'\np12\nI0\nsS'widgetYPosition'\np13\nI30\nsS'precision'\np14\nI4\nsS'widgetShown'\np15\nI0\nsS'pRepeat'\np16\nI10\nsS'widgetWidth'\np17\nI994\nsS'resampling'\np18\nI0\nsS'localContexts'\np19\n(lp20\n(iOWContexts\nContext\np21\n(dp22\nS'metas'\np23\n(dp24\nsS'values'\np25\n(dp26\nS'targetClass'\np27\n(I4\nI-2\ntp28\nssS'time'\np29\nF1338205675.728199\nsS'attributes'\np30\n(dp31\nS'sc'\np32\ncorange\n__pickleLoaderNamedConstants\np33\n(S'Variable_Type'\n(I2\nttRp34\nsS'lefr'\np35\ng33\n(S'Variable_Type'\n(I2\nttRp36\nsS'type'\np37\ng33\n(S'Variable_Type'\n(I1\nttRp38\nsS'name'\np39\ng33\n(S'Variable_Type'\n(I1\nttRp40\nsS'zcr'\np41\ng33\n(S'Variable_Type'\n(I2\nttRp42\nssS'noCopy'\np43\n(lp44\nS'orderedDomain'\np45\nasba(iOWContexts\nContext\np46\n(dp47\ng25\n(dp48\nS'targetClass'\np49\n(I0\nI-2\ntp50\nssg30\n(dp51\nS'57.958979'\np52\ng33\n(S'Variable_Type'\n(I1\nttRp53\nsS'428.000000'\np54\ng33\n(S'Variable_Type'\n(I1\nttRp55\nsS'ristorante_02_000_000'\np56\ng33\n(S'Variable_Type'\n(I1\nttRp57\nsS'0.190071'\np58\ng33\n(S'Variable_Type'\n(I1\nttRp59\nsS'ristorante'\np60\ng33\n(S'Variable_Type'\n(I1\nttRp61\nssg23\n(dp62\nsg43\n(lp63\nS'orderedDomain'\np64\nasg29\nF1338205027.347878\nsba(iOWContexts\nContext\np65\n(dp66\ng25\n(dp67\nS'targetClass'\np68\n(I0\nI-2\ntp69\nssg30\n(dp70\nS'sc'\np71\ng33\n(S'Variable_Type'\n(I2\nttRp72\nsS'zcf'\np73\ng33\n(S'Variable_Type'\n(I2\nttRp74\nsS'type'\np75\ng33\n(S'Variable_Type'\n(I1\nttRp76\nsS'name'\np77\ng33\n(S'Variable_Type'\n(I1\nttRp78\nsS'miao'\np79\ng33\n(S'Variable_Type'\n(I2\nttRp80\nssg23\n(dp81\nsg43\n(lp82\nS'orderedDomain'\np83\nasg29\nF1338202166.0519111\nsba(iOWContexts\nContext\np84\n(dp85\ng43\n(lp86\nS'orderedDomain'\np87\nasg30\n(dp88\nS'sc'\np89\ng33\n(S'Variable_Type'\n(I2\nttRp90\nsS'zcf'\np91\ng33\n(S'Variable_Type'\n(I2\nttRp92\nsS'type'\np93\ng33\n(S'Variable_Type'\n(I1\nttRp94\nsS'name'\np95\ng33\n(S'Variable_Type'\n(I1\nttRp96\nsS'miao'\np97\ng33\n(S'Variable_Type'\n(I2\nttRp98\nssg23\n(dp99\nsg25\n(dp100\nS'targetClass'\np101\n(I0\nI-2\ntp102\nssg29\nF1338195415.2812879\nsba(iOWContexts\nContext\np103\n(dp104\ng43\n(lp105\nS'orderedDomain'\np106\nasg30\n(dp107\nS'94.125089'\np108\ng33\n(S'Variable_Type'\n(I1\nttRp109\nsS'0.297872'\np110\ng33\n(S'Variable_Type'\n(I1\nttRp111\nsS'strada'\np112\ng33\n(S'Variable_Type'\n(I1\nttRp113\nsS'477.000000'\np114\ng33\n(S'Variable_Type'\n(I1\nttRp115\nsS'strada_02_000_000'\np116\ng33\n(S'Variable_Type'\n(I1\nttRp117\nssg23\n(dp118\nsg25\n(dp119\nS'targetClass'\np120\n(I0\nI-2\ntp121\nssg29\nF1338194433.498831\nsba(iOWContexts\nContext\np122\n(dp123\ng25\n(dp124\nS'targetClass'\np125\n(I0\nI-2\ntp126\nssg30\n(dp127\nS'94.125089'\np128\ng33\n(S'Variable_Type'\n(I1\nttRp129\nsS'0.297872'\np130\ng33\n(S'Variable_Type'\n(I1\nttRp131\nsS'strada'\np132\ng33\n(S'Variable_Type'\n(I1\nttRp133\nsS'477.000000'\np134\ng33\n(S'Variable_Type'\n(I1\nttRp135\nsS'strada_02_000_000'\np136\ng33\n(S'Variable_Type'\n(I1\nttRp137\nssg23\n(dp138\nsg43\n(lp139\nS'orderedDomain'\np140\nasg29\nF1338194433.498831\nsba(iOWContexts\nContext\np141\n(dp142\ng25\n(dp143\nS'targetClass'\np144\n(I0\nI-2\ntp145\nssg30\n(dp146\nS'handicapped-infants'\np147\ng33\n(S'Variable_Type'\n(I1\nttRp148\nsS'superfund-right-to-sue'\np149\ng33\n(S'Variable_Type'\n(I1\nttRp150\nsS'duty-free-exports'\np151\ng33\n(S'Variable_Type'\n(I1\nttRp152\nsS'aid-to-nicaraguan-contras'\np153\ng33\n(S'Variable_Type'\n(I1\nttRp154\nsS'immigration'\np155\ng33\n(S'Variable_Type'\n(I1\nttRp156\nsS'crime'\np157\ng33\n(S'Variable_Type'\n(I1\nttRp158\nsS'el-salvador-aid'\np159\ng33\n(S'Variable_Type'\n(I1\nttRp160\nsS'education-spending'\np161\ng33\n(S'Variable_Type'\n(I1\nttRp162\nsS'synfuels-corporation-cutback'\np163\ng33\n(S'Variable_Type'\n(I1\nttRp164\nsS'religious-groups-in-schools'\np165\ng33\n(S'Variable_Type'\n(I1\nttRp166\nsS'mx-missile'\np167\ng33\n(S'Variable_Type'\n(I1\nttRp168\nsS'anti-satellite-test-ban'\np169\ng33\n(S'Variable_Type'\n(I1\nttRp170\nsS'water-project-cost-sharing'\np171\ng33\n(S'Variable_Type'\n(I1\nttRp172\nsS'party'\np173\ng33\n(S'Variable_Type'\n(I1\nttRp174\nsS'export-administration-act-south-africa'\np175\ng33\n(S'Variable_Type'\n(I1\nttRp176\nsS'adoption-of-the-budget-resolution'\np177\ng33\n(S'Variable_Type'\n(I1\nttRp178\nsS'physician-fee-freeze'\np179\ng33\n(S'Variable_Type'\n(I1\nttRp180\nssg23\n(dp181\nsg43\n(lp182\ng83\nasg29\nF1338144735.958652\nsba(iOWContexts\nContext\np183\n(dp184\ng43\n(lp185\ng87\nasg30\n(dp186\nS'handicapped-infants'\np187\ng33\n(S'Variable_Type'\n(I1\nttRp188\nsS'water-project-cost-sharing'\np189\ng33\n(S'Variable_Type'\n(I1\nttRp190\nsS'education-spending'\np191\ng33\n(S'Variable_Type'\n(I1\nttRp192\nsS'adoption-of-the-budget-resolution'\np193\ng33\n(S'Variable_Type'\n(I1\nttRp194\nsS'immigration'\np195\ng33\n(S'Variable_Type'\n(I1\nttRp196\nsS'crime'\np197\ng33\n(S'Variable_Type'\n(I1\nttRp198\nsS'el-salvador-aid'\np199\ng33\n(S'Variable_Type'\n(I1\nttRp200\nsS'superfund-right-to-sue'\np201\ng33\n(S'Variable_Type'\n(I1\nttRp202\nsS'synfuels-corporation-cutback'\np203\ng33\n(S'Variable_Type'\n(I1\nttRp204\nsS'religious-groups-in-schools'\np205\ng33\n(S'Variable_Type'\n(I1\nttRp206\nsS'mx-missile'\np207\ng33\n(S'Variable_Type'\n(I1\nttRp208\nsS'anti-satellite-test-ban'\np209\ng33\n(S'Variable_Type'\n(I1\nttRp210\nsS'duty-free-exports'\np211\ng33\n(S'Variable_Type'\n(I1\nttRp212\nsS'party'\np213\ng33\n(S'Variable_Type'\n(I1\nttRp214\nsS'export-administration-act-south-africa'\np215\ng33\n(S'Variable_Type'\n(I1\nttRp216\nsS'aid-to-nicaraguan-contras'\np217\ng33\n(S'Variable_Type'\n(I1\nttRp218\nsS'physician-fee-freeze'\np219\ng33\n(S'Variable_Type'\n(I1\nttRp220\nssg23\n(dp221\nsg25\n(dp222\nS'targetClass'\np223\n(I0\nI-2\ntp224\nssg29\nF1338144735.958652\nsba(iOWContexts\nContext\np225\n(dp226\ng25\n(dp227\nS'targetClass'\np228\n(I4\nI-2\ntp229\nssg30\n(dp230\nS'sc'\np231\ng33\n(S'Variable_Type'\n(I2\nttRp232\nsS'lefr'\np233\ng33\n(S'Variable_Type'\n(I2\nttRp234\nsS'type'\np235\ng33\n(S'Variable_Type'\n(I1\nttRp236\nsS'name'\np237\ng33\n(S'Variable_Type'\n(I1\nttRp238\nsS'zcr'\np239\ng33\n(S'Variable_Type'\n(I2\nttRp240\nssg23\n(dp241\nsg43\n(lp242\nS'orderedDomain'\np243\nasg29\nF1337967068.953897\nsba(iOWContexts\nContext\np244\n(dp245\ng25\n(dp246\nS'targetClass'\np247\n(I1\nI-2\ntp248\nssg30\n(dp249\nS'sc'\np250\ng33\n(S'Variable_Type'\n(I2\nttRp251\nsS'lefr'\np252\ng33\n(S'Variable_Type'\n(I2\nttRp253\nsS'name'\np254\ng33\n(S'Variable_Type'\n(I1\nttRp255\nsS'zcr'\np256\ng33\n(S'Variable_Type'\n(I2\nttRp257\nsS'tipo'\np258\ng33\n(S'Variable_Type'\n(I1\nttRp259\nssg23\n(dp260\nsg43\n(lp261\nS'orderedDomain'\np262\nasg29\nF1337859102.3203239\nsba(iOWContexts\nContext\np263\n(dp264\ng43\n(lp265\nS'orderedDomain'\np266\nasg30\n(dp267\nS'sc'\np268\ng33\n(S'Variable_Type'\n(I2\nttRp269\nsS'lefr'\np270\ng33\n(S'Variable_Type'\n(I2\nttRp271\nsS'name'\np272\ng33\n(S'Variable_Type'\n(I1\nttRp273\nsS'zcr'\np274\ng33\n(S'Variable_Type'\n(I2\nttRp275\nsS'tipo'\np276\ng33\n(S'Variable_Type'\n(I1\nttRp277\nssg23\n(dp278\nsg25\n(dp279\nS'targetClass'\np280\n(I1\nI-2\ntp281\nssg29\nF1337859102.3203239\nsba(iOWContexts\nContext\np282\n(dp283\ng43\n(lp284\ng262\nasg30\n(dp285\nS'sc'\np286\ng33\n(S'Variable_Type'\n(I2\nttRp287\nsS'lefr'\np288\ng33\n(S'Variable_Type'\n(I2\nttRp289\nsS'zcr'\np290\ng33\n(S'Variable_Type'\n(I2\nttRp291\nsS'tipo'\np292\ng33\n(S'Variable_Type'\n(I1\nttRp293\nssg23\n(dp294\nsg25\n(dp295\nS'targetClass'\np296\n(I1\nI-2\ntp297\nssg29\nF1337792270.294117\nsba(iOWContexts\nContext\np298\n(dp299\ng25\n(dp300\nS'targetClass'\np301\n(I1\nI-2\ntp302\nssg30\n(dp303\nS'sc'\np304\ng33\n(S'Variable_Type'\n(I2\nttRp305\nsS'lefr'\np306\ng33\n(S'Variable_Type'\n(I2\nttRp307\nsS'tipo'\np308\ng33\n(S'Variable_Type'\n(I1\nttRp309\nsS'zcr'\np310\ng33\n(S'Variable_Type'\n(I2\nttRp311\nssg23\n(dp312\nsg43\n(lp313\ng266\nasg29\nF1337792270.294117\nsba(iOWContexts\nContext\np314\n(dp315\ng25\n(dp316\nS'targetClass'\np317\n(I1\nI-2\ntp318\nssg30\n(dp319\nS'sc'\np320\ng33\n(S'Variable_Type'\n(I1\nttRp321\nsS'lefr'\np322\ng33\n(S'Variable_Type'\n(I1\nttRp323\nsS'tipo'\np324\ng33\n(S'Variable_Type'\n(I1\nttRp325\nsS'zcr'\np326\ng33\n(S'Variable_Type'\n(I1\nttRp327\nssg23\n(dp328\nsg43\n(lp329\nS'orderedDomain'\np330\nasg29\nF1337503078.59233\nsba(iOWContexts\nContext\np331\n(dp332\ng43\n(lp333\nS'orderedDomain'\np334\nasg30\n(dp335\nS'sc'\np336\ng33\n(S'Variable_Type'\n(I1\nttRp337\nsS'lefr'\np338\ng33\n(S'Variable_Type'\n(I1\nttRp339\nsS'zcr'\np340\ng33\n(S'Variable_Type'\n(I1\nttRp341\nsS'tipo'\np342\ng33\n(S'Variable_Type'\n(I1\nttRp343\nssg23\n(dp344\nsg25\n(dp345\nS'targetClass'\np346\n(I1\nI-2\ntp347\nssg29\nF1337503078.59233\nsba(iOWContexts\nContext\np348\n(dp349\ng43\n(lp350\nS'orderedDomain'\np351\nasg30\n(dp352\nS'campione'\np353\ng33\n(S'Variable_Type'\n(I1\nttRp354\nsS'sc'\np355\ng33\n(S'Variable_Type'\n(I1\nttRp356\nsS'zcr'\np357\ng33\n(S'Variable_Type'\n(I1\nttRp358\nsS'tipo'\np359\ng33\n(S'Variable_Type'\n(I1\nttRp360\nsS'lefr'\np361\ng33\n(S'Variable_Type'\n(I1\nttRp362\nssg23\n(dp363\nsg25\n(dp364\nS'targetClass'\np365\n(I0\nI-2\ntp366\nssg29\nF1337288919.9637411\nsba(iOWContexts\nContext\np367\n(dp368\ng25\n(dp369\nS'targetClass'\np370\n(I0\nI-2\ntp371\nssg30\n(dp372\nS'campione'\np373\ng33\n(S'Variable_Type'\n(I1\nttRp374\nsS'sc'\np375\ng33\n(S'Variable_Type'\n(I1\nttRp376\nsS'tipo'\np377\ng33\n(S'Variable_Type'\n(I1\nttRp378\nsS'zcr'\np379\ng33\n(S'Variable_Type'\n(I1\nttRp380\nsS'lefr'\np381\ng33\n(S'Variable_Type'\n(I1\nttRp382\nssg23\n(dp383\nsg43\n(lp384\nS'orderedDomain'\np385\nasg29\nF1337288919.9637411\nsba(iOWContexts\nContext\np386\n(dp387\ng25\n(dp388\nS'targetClass'\np389\n(I0\nI-2\ntp390\nssg30\n(dp391\nS'mode'\np392\ng33\n(S'Variable_Type'\n(I6\nttRp393\nssg23\n(dp394\nsg43\n(lp395\nS'orderedDomain'\np396\nasg29\nF1336635973.833261\nsba(iOWContexts\nContext\np397\n(dp398\ng43\n(lp399\nS'orderedDomain'\np400\nasg30\n(dp401\nS'mode'\np402\ng33\n(S'Variable_Type'\n(I6\nttRp403\nssg23\n(dp404\nsg25\n(dp405\nS'targetClass'\np406\n(I0\nI-2\ntp407\nssg29\nF1336635973.833261\nsba(iOWContexts\nContext\np408\n(dp409\ng25\n(dp410\ng389\n(I0\nI-2\ntp411\nssg30\n(dp412\nS'mode'\np413\ng33\n(S'Variable_Type'\n(I6\nttRp414\nssg23\n(dp415\nsg43\n(lp416\nS'orderedDomain'\np417\nasg29\nF1336635780.47225\nsba(iOWContexts\nContext\np418\n(dp419\ng43\n(lp420\nS'orderedDomain'\np421\nasg30\n(dp422\nS'mode'\np423\ng33\n(S'Variable_Type'\n(I6\nttRp424\nssg23\n(dp425\nsg25\n(dp426\ng406\n(I0\nI-2\ntp427\nssg29\nF1336635780.47225\nsbasS'savedWidgetGeometry'\np428\nS'\\x01\\xd9\\xd0\\xcb\\x00\\x01\\x00\\x00\\x00\\x00\\x00\\x00\\x00\\x00\\x00\\x1e\\x00\\x00\\x03\\xe1\\x00\\x00\\x02\\xc3\\x00\\x00\\x00\\x00\\x00\\x00\\x00\\x1e\\x00\\x00\\x03\\xe1\\x00\\x00\\x02\\xc3\\x00\\x00\\x00\\x00\\x00\\x00'\np429\nsS'nFolds'\np430\nI10\nsS'applyOnAnyChange'\np431\nI01\ns."
p5
sS'Naive Bayes'
p6
S"(dp1\nS'adjustThreshold'\np2\nI0\nsS'name'\np3\nS'Naive Bayes'\np4\nsS'probEstimation'\np5\nI0\nsS'm_estimator.m'\np6\nF2\nsS'widgetHeight'\np7\nNsS'condProbEstimation'\np8\nI0\nsS'widgetYPosition'\np9\nNsS'savedWidgetGeometry'\np10\nNsS'widgetShown'\np11\nNsS'windowProportion'\np12\nF0.5\nsS'widgetWidth'\np13\nNsS'widgetXPosition'\np14\nNs."
p7
sS'Data Table'
p8
S"(dp1\nS'autoCommit'\np2\nI00\nsS'widgetYPosition'\np3\nI0\nsS'showMeta'\np4\nI1\nsS'distColorRgb'\np5\n(I220\nI220\nI220\nI255\ntp6\nsS'widgetHeight'\np7\nI678\nsS'widgetXPosition'\np8\nI0\nsS'showAttributeLabels'\np9\nI1\nsS'showDistributions'\np10\nI1\nsS'widgetShown'\np11\nI0\nsS'savedWidgetGeometry'\np12\nS'\\x01\\xd9\\xd0\\xcb\\x00\\x01\\x00\\x00\\x00\\x00\\x00\\x00\\x00\\x00\\x00\\x00\\x00\\x00\\x03\\xe1\\x00\\x00\\x02\\xa5\\x00\\x00\\x00\\x00\\x00\\x00\\x00\\x00\\x00\\x00\\x03\\xe1\\x00\\x00\\x02\\xa5\\x00\\x00\\x00\\x00\\x00\\x00'\np13\nsS'widgetWidth'\np14\nI994\nsS'selectedSchemaIndex'\np15\nI0\nsS'colorByClass'\np16\nI01\ns."
p9
sS'Interactive Tree Builder'
p10
S"(dp1\nS'localContextsVersion'\np2\n(I100\nI0\ntp3\nsS'expslider'\np4\nI5\nsS'dist'\np5\nI1\nsS'sliderValue'\np6\nI5\nsS'adist'\np7\nI1\nsS'widgetXPosition'\np8\nI0\nsS'widgetYPosition'\np9\nI0\nsS'pmaj'\np10\nI1\nsS'widgetShown'\np11\nI0\nsS'savedWidgetGeometry'\np12\nS'\\x01\\xd9\\xd0\\xcb\\x00\\x01\\x00\\x00\\x00\\x00\\x00\\x00\\x00\\x00\\x00\\x00\\x00\\x00\\x03\\xe1\\x00\\x00\\x02\\xa5\\x00\\x00\\x00\\x00\\x00\\x00\\x00\\x00\\x00\\x00\\x03\\xe1\\x00\\x00\\x02\\xa5\\x00\\x00\\x00\\x00\\x00\\x00'\np13\nsS'widgetWidth'\np14\nI994\nsS'ptarget'\np15\nI1\nsS'widgetHeight'\np16\nI678\nsS'inst'\np17\nI1\nsS'maj'\np18\nI1\nsS'localContexts'\np19\n(lp20\n(iOWContexts\nContext\np21\n(dp22\nS'metas'\np23\n(dp24\nsS'values'\np25\n(dp26\nS'targetClass'\np27\n(I0\nI-2\ntp28\nssS'time'\np29\nF1338205675.746619\nsS'attributes'\np30\n(dp31\nS'sc'\np32\ncorange\n__pickleLoaderNamedConstants\np33\n(S'Variable_Type'\n(I2\nttRp34\nsS'lefr'\np35\ng33\n(S'Variable_Type'\n(I2\nttRp36\nsS'type'\np37\ncorange\nStringList\np38\n(tRp39\nS'auto'\naS'lezione'\naS'parco'\naS'ristorante'\naS'strada'\naS'treno'\naS'tv'\na(dbsS'name'\np40\ng33\n(S'Variable_Type'\n(I1\nttRp41\nsS'zcr'\np42\ng33\n(S'Variable_Type'\n(I2\nttRp43\nssS'noCopy'\np44\n(lp45\nS'orderedDomain'\np46\nasba(iOWContexts\nContext\np47\n(dp48\ng25\n(dp49\nS'targetClass'\np50\n(I0\nI-2\ntp51\nssg30\n(dp52\nS'sc'\np53\ng33\n(S'Variable_Type'\n(I2\nttRp54\nsS'zcf'\np55\ng33\n(S'Variable_Type'\n(I2\nttRp56\nsS'type'\np57\ng38\n(tRp58\nS'auto'\naS'lezione'\naS'parco'\naS'ristorante'\naS'strada'\naS'treno'\naS'tv'\na(dbsS'name'\np59\ng33\n(S'Variable_Type'\n(I1\nttRp60\nsS'miao'\np61\ng33\n(S'Variable_Type'\n(I2\nttRp62\nssg23\n(dp63\nsg44\n(lp64\nS'orderedDomain'\np65\nasg29\nF1338202169.862087\nsba(iOWContexts\nContext\np66\n(dp67\ng44\n(lp68\nS'orderedDomain'\np69\nasg30\n(dp70\nS'sc'\np71\ng33\n(S'Variable_Type'\n(I2\nttRp72\nsS'zcf'\np73\ng33\n(S'Variable_Type'\n(I2\nttRp74\nsS'type'\np75\ng38\n(tRp76\nS'auto'\naS'lezione'\naS'parco'\naS'ristorante'\naS'strada'\naS'treno'\naS'tv'\na(dbsS'name'\np77\ng33\n(S'Variable_Type'\n(I1\nttRp78\nsS'miao'\np79\ng33\n(S'Variable_Type'\n(I2\nttRp80\nssg23\n(dp81\nsg25\n(dp82\nS'targetClass'\np83\n(I0\nI-2\ntp84\nssg29\nF1338195487.241981\nsba(iOWContexts\nContext\np85\n(dp86\ng25\n(dp87\nS'targetClass'\np88\n(I0\nI-2\ntp89\nssg30\n(dp90\nS'sc'\np91\ng33\n(S'Variable_Type'\n(I2\nttRp92\nsS'zcf'\np93\ng33\n(S'Variable_Type'\n(I2\nttRp94\nsS'type'\np95\ng38\n(tRp96\nS'auto'\naS'parco'\naS'strada'\naS'treno'\naS'tv'\na(dbsS'name'\np97\ng33\n(S'Variable_Type'\n(I1\nttRp98\nsS'miao'\np99\ng33\n(S'Variable_Type'\n(I2\nttRp100\nssg23\n(dp101\nsg44\n(lp102\nS'orderedDomain'\np103\nasg29\nF1338144874.5773909\nsba(iOWContexts\nContext\np104\n(dp105\ng44\n(lp106\nS'orderedDomain'\np107\nasg30\n(dp108\nS'sc'\np109\ng33\n(S'Variable_Type'\n(I2\nttRp110\nsS'zcf'\np111\ng33\n(S'Variable_Type'\n(I2\nttRp112\nsS'type'\np113\ng38\n(tRp114\nS'auto'\naS'parco'\naS'strada'\naS'treno'\naS'tv'\na(dbsS'name'\np115\ng33\n(S'Variable_Type'\n(I1\nttRp116\nsS'miao'\np117\ng33\n(S'Variable_Type'\n(I2\nttRp118\nssg23\n(dp119\nsg25\n(dp120\nS'targetClass'\np121\n(I0\nI-2\ntp122\nssg29\nF1338144874.5773909\nsba(iOWContexts\nContext\np123\n(dp124\ng25\n(dp125\ng88\n(I0\nI-2\ntp126\nssg30\n(dp127\nS'handicapped-infants'\np128\ng33\n(S'Variable_Type'\n(I1\nttRp129\nsS'superfund-right-to-sue'\np130\ng33\n(S'Variable_Type'\n(I1\nttRp131\nsS'duty-free-exports'\np132\ng33\n(S'Variable_Type'\n(I1\nttRp133\nsS'aid-to-nicaraguan-contras'\np134\ng33\n(S'Variable_Type'\n(I1\nttRp135\nsS'immigration'\np136\ng33\n(S'Variable_Type'\n(I1\nttRp137\nsS'crime'\np138\ng33\n(S'Variable_Type'\n(I1\nttRp139\nsS'el-salvador-aid'\np140\ng33\n(S'Variable_Type'\n(I1\nttRp141\nsS'education-spending'\np142\ng33\n(S'Variable_Type'\n(I1\nttRp143\nsS'synfuels-corporation-cutback'\np144\ng33\n(S'Variable_Type'\n(I1\nttRp145\nsS'religious-groups-in-schools'\np146\ng33\n(S'Variable_Type'\n(I1\nttRp147\nsS'mx-missile'\np148\ng33\n(S'Variable_Type'\n(I1\nttRp149\nsS'anti-satellite-test-ban'\np150\ng33\n(S'Variable_Type'\n(I1\nttRp151\nsS'water-project-cost-sharing'\np152\ng33\n(S'Variable_Type'\n(I1\nttRp153\nsS'party'\np154\ng38\n(tRp155\nS'republican'\naS'democrat'\na(dbsS'export-administration-act-south-africa'\np156\ng33\n(S'Variable_Type'\n(I1\nttRp157\nsS'adoption-of-the-budget-resolution'\np158\ng33\n(S'Variable_Type'\n(I1\nttRp159\nsS'physician-fee-freeze'\np160\ng33\n(S'Variable_Type'\n(I1\nttRp161\nssg23\n(dp162\nsg44\n(lp163\ng103\nasg29\nF1338144736.2996321\nsba(iOWContexts\nContext\np164\n(dp165\ng44\n(lp166\ng107\nasg30\n(dp167\nS'handicapped-infants'\np168\ng33\n(S'Variable_Type'\n(I1\nttRp169\nsS'water-project-cost-sharing'\np170\ng33\n(S'Variable_Type'\n(I1\nttRp171\nsS'education-spending'\np172\ng33\n(S'Variable_Type'\n(I1\nttRp173\nsS'adoption-of-the-budget-resolution'\np174\ng33\n(S'Variable_Type'\n(I1\nttRp175\nsS'immigration'\np176\ng33\n(S'Variable_Type'\n(I1\nttRp177\nsS'crime'\np178\ng33\n(S'Variable_Type'\n(I1\nttRp179\nsS'el-salvador-aid'\np180\ng33\n(S'Variable_Type'\n(I1\nttRp181\nsS'superfund-right-to-sue'\np182\ng33\n(S'Variable_Type'\n(I1\nttRp183\nsS'synfuels-corporation-cutback'\np184\ng33\n(S'Variable_Type'\n(I1\nttRp185\nsS'religious-groups-in-schools'\np186\ng33\n(S'Variable_Type'\n(I1\nttRp187\nsS'mx-missile'\np188\ng33\n(S'Variable_Type'\n(I1\nttRp189\nsS'anti-satellite-test-ban'\np190\ng33\n(S'Variable_Type'\n(I1\nttRp191\nsS'duty-free-exports'\np192\ng33\n(S'Variable_Type'\n(I1\nttRp193\nsS'party'\np194\ng38\n(tRp195\nS'republican'\naS'democrat'\na(dbsS'export-administration-act-south-africa'\np196\ng33\n(S'Variable_Type'\n(I1\nttRp197\nsS'aid-to-nicaraguan-contras'\np198\ng33\n(S'Variable_Type'\n(I1\nttRp199\nsS'physician-fee-freeze'\np200\ng33\n(S'Variable_Type'\n(I1\nttRp201\nssg23\n(dp202\nsg25\n(dp203\ng121\n(I0\nI-2\ntp204\nssg29\nF1338144736.2996321\nsba(iOWContexts\nContext\np205\n(dp206\ng44\n(lp207\nS'orderedDomain'\np208\nasg30\n(dp209\nS'sc'\np210\ng33\n(S'Variable_Type'\n(I2\nttRp211\nsS'lefr'\np212\ng33\n(S'Variable_Type'\n(I2\nttRp213\nsS'type'\np214\ng38\n(tRp215\nS'auto'\naS'parco'\naS'strada'\naS'treno'\naS'tv'\na(dbsS'name'\np216\ng33\n(S'Variable_Type'\n(I1\nttRp217\nsS'zcr'\np218\ng33\n(S'Variable_Type'\n(I2\nttRp219\nssg23\n(dp220\nsg25\n(dp221\nS'targetClass'\np222\n(I0\nI-2\ntp223\nssg29\nF1337967120.108103\nsba(iOWContexts\nContext\np224\n(dp225\ng25\n(dp226\nS'targetClass'\np227\n(I0\nI-2\ntp228\nssg30\n(dp229\nS'sc'\np230\ng33\n(S'Variable_Type'\n(I2\nttRp231\nsS'lefr'\np232\ng33\n(S'Variable_Type'\n(I2\nttRp233\nsS'type'\np234\ng38\n(tRp235\nS'auto'\naS'parco'\naS'strada'\naS'treno'\naS'tv'\na(dbsS'name'\np236\ng33\n(S'Variable_Type'\n(I1\nttRp237\nsS'zcr'\np238\ng33\n(S'Variable_Type'\n(I2\nttRp239\nssg23\n(dp240\nsg44\n(lp241\nS'orderedDomain'\np242\nasg29\nF1337967120.108103\nsba(iOWContexts\nContext\np243\n(dp244\ng44\n(lp245\nS'orderedDomain'\np246\nasg30\n(dp247\nS'sc'\np248\ng33\n(S'Variable_Type'\n(I2\nttRp249\nsS'lefr'\np250\ng33\n(S'Variable_Type'\n(I2\nttRp251\nsS'type'\np252\ng38\n(tRp253\nS'auto'\naS'centrocommerciale'\naS'parco'\naS'ristorante'\naS'strada'\naS'treno'\naS'tv'\na(dbsS'name'\np254\ng33\n(S'Variable_Type'\n(I1\nttRp255\nsS'zcr'\np256\ng33\n(S'Variable_Type'\n(I2\nttRp257\nssg23\n(dp258\nsg25\n(dp259\nS'targetClass'\np260\n(I0\nI-2\ntp261\nssg29\nF1337963624.6474349\nsba(iOWContexts\nContext\np262\n(dp263\ng25\n(dp264\nS'targetClass'\np265\n(I0\nI-2\ntp266\nssg30\n(dp267\nS'sc'\np268\ng33\n(S'Variable_Type'\n(I2\nttRp269\nsS'lefr'\np270\ng33\n(S'Variable_Type'\n(I2\nttRp271\nsS'type'\np272\ng38\n(tRp273\nS'auto'\naS'centrocommerciale'\naS'parco'\naS'ristorante'\naS'strada'\naS'treno'\naS'tv'\na(dbsS'name'\np274\ng33\n(S'Variable_Type'\n(I1\nttRp275\nsS'zcr'\np276\ng33\n(S'Variable_Type'\n(I2\nttRp277\nssg23\n(dp278\nsg44\n(lp279\nS'orderedDomain'\np280\nasg29\nF1337963624.6474349\nsba(iOWContexts\nContext\np281\n(dp282\ng44\n(lp283\nS'orderedDomain'\np284\nasg30\n(dp285\nS'sc'\np286\ng33\n(S'Variable_Type'\n(I2\nttRp287\nsS'lefr'\np288\ng33\n(S'Variable_Type'\n(I2\nttRp289\nsS'zcr'\np290\ng33\n(S'Variable_Type'\n(I2\nttRp291\nsS'tipo'\np292\ng38\n(tRp293\nS'auto'\naS'centrocommerciale'\naS'parco'\naS'ristorante'\na(dbssg23\n(dp294\nsg25\n(dp295\ng260\n(I0\nI-2\ntp296\nssg29\nF1337963609.971065\nsba(iOWContexts\nContext\np297\n(dp298\ng25\n(dp299\ng265\n(I0\nI-2\ntp300\nssg30\n(dp301\nS'sc'\np302\ng33\n(S'Variable_Type'\n(I2\nttRp303\nsS'lefr'\np304\ng33\n(S'Variable_Type'\n(I2\nttRp305\nsS'tipo'\np306\ng38\n(tRp307\nS'auto'\naS'centrocommerciale'\naS'parco'\naS'ristorante'\na(dbsS'zcr'\np308\ng33\n(S'Variable_Type'\n(I2\nttRp309\nssg23\n(dp310\nsg44\n(lp311\nS'orderedDomain'\np312\nasg29\nF1337963609.971065\nsba(iOWContexts\nContext\np313\n(dp314\ng25\n(dp315\nS'targetClass'\np316\n(I0\nI-2\ntp317\nssg30\n(dp318\nS'sc'\np319\ng33\n(S'Variable_Type'\n(I2\nttRp320\nsS'lefr'\np321\ng33\n(S'Variable_Type'\n(I2\nttRp322\nsS'name'\np323\ng33\n(S'Variable_Type'\n(I1\nttRp324\nsS'zcr'\np325\ng33\n(S'Variable_Type'\n(I2\nttRp326\nsS'tipo'\np327\ng38\n(tRp328\nS'auto'\naS'centrocommerciale'\naS'parco'\naS'ristorante'\na(dbssg23\n(dp329\nsg44\n(lp330\nS'orderedDomain'\np331\nasg29\nF1337859161.3803401\nsba(iOWContexts\nContext\np332\n(dp333\ng44\n(lp334\nS'orderedDomain'\np335\nasg30\n(dp336\nS'sc'\np337\ng33\n(S'Variable_Type'\n(I2\nttRp338\nsS'lefr'\np339\ng33\n(S'Variable_Type'\n(I2\nttRp340\nsS'name'\np341\ng33\n(S'Variable_Type'\n(I1\nttRp342\nsS'zcr'\np343\ng33\n(S'Variable_Type'\n(I2\nttRp344\nsS'tipo'\np345\ng38\n(tRp346\nS'auto'\naS'centrocommerciale'\naS'parco'\naS'ristorante'\na(dbssg23\n(dp347\nsg25\n(dp348\nS'targetClass'\np349\n(I0\nI-2\ntp350\nssg29\nF1337859161.3803401\nsba(iOWContexts\nContext\np351\n(dp352\ng25\n(dp353\nS'targetClass'\np354\n(I0\nI-2\ntp355\nssg30\n(dp356\nS'sc'\np357\ng33\n(S'Variable_Type'\n(I2\nttRp358\nsS'lefr'\np359\ng33\n(S'Variable_Type'\n(I2\nttRp360\nsS'name'\np361\ng33\n(S'Variable_Type'\n(I1\nttRp362\nsS'zcr'\np363\ng33\n(S'Variable_Type'\n(I2\nttRp364\nsS'tipo'\np365\ng38\n(tRp366\nS'auto'\naS'ristorante'\naS'centrocommerciale'\naS'parco'\na(dbssg23\n(dp367\nsg44\n(lp368\nS'orderedDomain'\np369\nasg29\nF1337510857.230417\nsba(iOWContexts\nContext\np370\n(dp371\ng44\n(lp372\nS'orderedDomain'\np373\nasg30\n(dp374\nS'sc'\np375\ng33\n(S'Variable_Type'\n(I2\nttRp376\nsS'lefr'\np377\ng33\n(S'Variable_Type'\n(I2\nttRp378\nsS'name'\np379\ng33\n(S'Variable_Type'\n(I1\nttRp380\nsS'zcr'\np381\ng33\n(S'Variable_Type'\n(I2\nttRp382\nsS'tipo'\np383\ng38\n(tRp384\nS'auto'\naS'ristorante'\naS'centrocommerciale'\naS'parco'\na(dbssg23\n(dp385\nsg25\n(dp386\nS'targetClass'\np387\n(I0\nI-2\ntp388\nssg29\nF1337510857.230417\nsba(iOWContexts\nContext\np389\n(dp390\ng25\n(dp391\ng354\n(I0\nI-2\ntp392\nssg30\n(dp393\nS'sc'\np394\ng33\n(S'Variable_Type'\n(I2\nttRp395\nsS'lefr'\np396\ng33\n(S'Variable_Type'\n(I2\nttRp397\nsS'tipo'\np398\ng366\nsS'zcr'\np399\ng33\n(S'Variable_Type'\n(I2\nttRp400\nssg23\n(dp401\nsg44\n(lp402\ng369\nasg29\nF1337503985.9999499\nsba(iOWContexts\nContext\np403\n(dp404\ng44\n(lp405\ng373\nasg30\n(dp406\nS'sc'\np407\ng33\n(S'Variable_Type'\n(I2\nttRp408\nsS'lefr'\np409\ng33\n(S'Variable_Type'\n(I2\nttRp410\nsS'zcr'\np411\ng33\n(S'Variable_Type'\n(I2\nttRp412\nsS'tipo'\np413\ng384\nssg23\n(dp414\nsg25\n(dp415\ng387\n(I0\nI-2\ntp416\nssg29\nF1337503985.9999499\nsba(iOWContexts\nContext\np417\n(dp418\ng25\n(dp419\ng354\n(I0\nI-2\ntp420\nssg30\n(dp421\nS'sc'\np422\ng33\n(S'Variable_Type'\n(I1\nttRp423\nsS'lefr'\np424\ng33\n(S'Variable_Type'\n(I1\nttRp425\nsS'tipo'\np426\ng366\nsS'zcr'\np427\ng33\n(S'Variable_Type'\n(I1\nttRp428\nssg23\n(dp429\nsg44\n(lp430\nS'orderedDomain'\np431\nasg29\nF1337503244.7712109\nsba(iOWContexts\nContext\np432\n(dp433\ng44\n(lp434\nS'orderedDomain'\np435\nasg30\n(dp436\nS'sc'\np437\ng33\n(S'Variable_Type'\n(I1\nttRp438\nsS'lefr'\np439\ng33\n(S'Variable_Type'\n(I1\nttRp440\nsS'zcr'\np441\ng33\n(S'Variable_Type'\n(I1\nttRp442\nsS'tipo'\np443\ng384\nssg23\n(dp444\nsg25\n(dp445\ng387\n(I0\nI-2\ntp446\nssg29\nF1337503244.7712109\nsba(iOWContexts\nContext\np447\n(dp448\ng44\n(lp449\ng431\nasg30\n(dp450\nS'sc'\np451\ng33\n(S'Variable_Type'\n(I1\nttRp452\nsS'lefr'\np453\ng33\n(S'Variable_Type'\n(I1\nttRp454\nsS'zcr'\np455\ng33\n(S'Variable_Type'\n(I1\nttRp456\nsS'tipo'\np457\ng38\n(tRp458\nS'auto'\naS'centrocommerciale'\naS'ristorante'\naS'parco'\na(dbssg23\n(dp459\nsg25\n(dp460\nS'targetClass'\np461\n(I0\nI-2\ntp462\nssg29\nF1337289082.0403669\nsba(iOWContexts\nContext\np463\n(dp464\ng25\n(dp465\nS'targetClass'\np466\n(I0\nI-2\ntp467\nssg30\n(dp468\nS'sc'\np469\ng33\n(S'Variable_Type'\n(I1\nttRp470\nsS'lefr'\np471\ng33\n(S'Variable_Type'\n(I1\nttRp472\nsS'tipo'\np473\ng38\n(tRp474\nS'auto'\naS'centrocommerciale'\naS'ristorante'\naS'parco'\na(dbsS'zcr'\np475\ng33\n(S'Variable_Type'\n(I1\nttRp476\nssg23\n(dp477\nsg44\n(lp478\ng435\nasg29\nF1337289082.0403669\nsba(iOWContexts\nContext\np479\n(dp480\ng25\n(dp481\nS'targetClass'\np482\n(I0\nI-2\ntp483\nssg30\n(dp484\nS'campione'\np485\ng33\n(S'Variable_Type'\n(I1\nttRp486\nsS'sc'\np487\ng33\n(S'Variable_Type'\n(I1\nttRp488\nsS'tipo'\np489\ng38\n(tRp490\nS'auto'\naS'centrocommerciale'\naS'parco'\naS'ristorante'\na(dbsS'zcr'\np491\ng33\n(S'Variable_Type'\n(I1\nttRp492\nsS'lefr'\np493\ng33\n(S'Variable_Type'\n(I1\nttRp494\nssg23\n(dp495\nsg44\n(lp496\nS'orderedDomain'\np497\nasg29\nF1337254371.204824\nsba(iOWContexts\nContext\np498\n(dp499\ng44\n(lp500\nS'orderedDomain'\np501\nasg30\n(dp502\nS'campione'\np503\ng33\n(S'Variable_Type'\n(I1\nttRp504\nsS'sc'\np505\ng33\n(S'Variable_Type'\n(I1\nttRp506\nsS'zcr'\np507\ng33\n(S'Variable_Type'\n(I1\nttRp508\nsS'tipo'\np509\ng38\n(tRp510\nS'auto'\naS'centrocommerciale'\naS'parco'\naS'ristorante'\na(dbsS'lefr'\np511\ng33\n(S'Variable_Type'\n(I1\nttRp512\nssg23\n(dp513\nsg25\n(dp514\nS'targetClass'\np515\n(I0\nI-2\ntp516\nssg29\nF1337254371.204824\nsbas."
p11
sS'Confusion Matrix'
p12
S"(dp1\nS'widgetHeight'\np2\nI678\nsS'widgetXPosition'\np3\nI0\nsS'widgetYPosition'\np4\nI30\nsS'widgetShown'\np5\nI0\nsS'savedWidgetGeometry'\np6\nS'\\x01\\xd9\\xd0\\xcb\\x00\\x01\\x00\\x00\\x00\\x00\\x00\\x00\\x00\\x00\\x00\\x1e\\x00\\x00\\x03\\xe1\\x00\\x00\\x02\\xc3\\x00\\x00\\x00\\x00\\x00\\x00\\x00\\x1e\\x00\\x00\\x03\\xe1\\x00\\x00\\x02\\xc3\\x00\\x00\\x00\\x00\\x00\\x00'\np7\nsS'widgetWidth'\np8\nI994\ns."
p13
sS'File'
p14
S"(dp1\nS'widgetHeight'\np2\nI678\nsS'widgetXPosition'\np3\nI0\nsS'widgetYPosition'\np4\nI30\nsS'savedWidgetGeometry'\np5\nS'\\x01\\xd9\\xd0\\xcb\\x00\\x01\\x00\\x00\\x00\\x00\\x00\\x00\\x00\\x00\\x00\\x1e\\x00\\x00\\x03\\xe1\\x00\\x00\\x02\\xc3\\x00\\x00\\x00\\x00\\x00\\x00\\x00\\x1e\\x00\\x00\\x03\\xe1\\x00\\x00\\x02\\xc3\\x00\\x00\\x00\\x00\\x00\\x00'\np6\nsS'widgetShown'\np7\nI0\nsS'showAdvanced'\np8\nI0\nsS'createNewOn'\np9\nI1\nsS'widgetWidth'\np10\nI994\nsS'localContextsVersion'\np11\n(I100\nI0\ntp12\nsS'localContexts'\np13\n(lp14\n(iOWContexts\nContext\np15\n(dp16\nS'symbolDK'\np17\nS''\nsS'symbolDC'\np18\nS''\nsS'time'\np19\nF1338205671.623832\nsS'filename'\np20\nS'/home/nicola/Desktop/sound-unimore/source/dataset.tab'\np21\nsba(iOWContexts\nContext\np22\n(dp23\ng17\nS''\nsg18\nS''\nsg19\nF1338205027.16892\nsg20\nS''\nsba(iOWContexts\nContext\np24\n(dp25\ng18\nS''\nsg17\nS''\nsg20\nS''\nsg19\nF1338204944.3277199\nsba(iOWContexts\nContext\np26\n(dp27\ng17\nS''\nsg18\nS''\nsg19\nF1338194433.1802261\nsg20\nS''\nsba(iOWContexts\nContext\np28\n(dp29\ng18\nS''\nsg17\nS''\nsg20\nS''\nsg19\nF1338194433.1802261\nsba(iOWContexts\nContext\np30\n(dp31\ng17\nS''\nsg18\nS''\nsg19\nF1338144778.593581\nsg20\nS''\nsba(iOWContexts\nContext\np32\n(dp33\ng18\nS''\nsg17\nS''\nsg20\nS''\nsg19\nF1338144778.593581\nsba(iOWContexts\nContext\np34\n(dp35\ng17\nS''\nsg18\nS''\nsg19\nF1338144735.7122331\nsg20\nS'/usr/share/doc/python-orange/datasets/voting.tab'\np36\nsba(iOWContexts\nContext\np37\n(dp38\ng18\nS''\nsg17\nS''\nsg20\nS'/usr/share/doc/python-orange/datasets/voting.tab'\np39\nsg19\nF1338144735.7122331\nsba(iOWContexts\nContext\np40\n(dp41\ng18\nS''\nsg17\nS''\nsg20\nS'/home/ciopper90/sound/source/dataset.tab'\np42\nsg19\nF1337967068.7729509\nsba(iOWContexts\nContext\np43\n(dp44\ng17\nS''\nsg18\nS''\nsg19\nF1337967068.7729509\nsg20\nS'/home/ciopper90/sound/source/dataset.tab'\np45\nsba(iOWContexts\nContext\np46\n(dp47\ng18\nS''\nsg17\nS''\nsg20\nS''\nsg19\nF1337966412.5995309\nsba(iOWContexts\nContext\np48\n(dp49\ng17\nS''\nsg18\nS''\nsg19\nF1337966412.5995309\nsg20\nS''\nsba(iOWContexts\nContext\np50\n(dp51\ng18\nS''\nsg17\nS''\nsg20\nS''\nsg19\nF1337966392.2664671\nsba(iOWContexts\nContext\np52\n(dp53\ng17\nS''\nsg18\nS''\nsg19\nF1337966392.2664671\nsg20\nS''\nsba(iOWContexts\nContext\np54\n(dp55\ng18\nS''\nsg17\nS''\nsg20\nS'/home/ciopper90/tesi/Source/audio.tab'\np56\nsg19\nF1337963609.9191821\nsba(iOWContexts\nContext\np57\n(dp58\ng17\nS''\nsg18\nS''\nsg19\nF1337963609.9191821\nsg20\nS'/home/ciopper90/tesi/Source/audio.tab'\np59\nsba(iOWContexts\nContext\np60\n(dp61\ng17\nS''\nsg18\nS''\nsg19\nF1337178911.487359\nsg20\nS'/home/ciopper90/tesi/Source/audio.tab'\np62\nsba(iOWContexts\nContext\np63\n(dp64\ng18\nS''\nsg17\nS''\nsg20\nS'/home/ciopper90/tesi/Source/audio.tab'\np65\nsg19\nF1337178911.487359\nsba(iOWContexts\nContext\np66\n(dp67\ng18\nS''\nsg17\nS''\nsg20\ng62\nsg19\nF1336825731.085942\nsba(iOWContexts\nContext\np68\n(dp69\ng17\nS''\nsg18\nS''\nsg19\nF1336825731.085942\nsg20\nS'/home/ciopper90/tesi/Source/audio.tab'\np70\nsba(iOWContexts\nContext\np71\n(dp72\ng17\nS''\nsg18\nS''\nsg19\nF1336825731.085942\nsg20\ng65\nsba(iOWContexts\nContext\np73\n(dp74\ng18\nS''\nsg17\nS''\nsg20\nS'/home/ciopper90/tesi/Source/audio.tab'\np75\nsg19\nF1336825731.085942\nsba(iOWContexts\nContext\np76\n(dp77\ng18\nS''\nsg17\nS''\nsg20\nS'/home/ciopper90/tesi/Source/audio.tab'\np78\nsg19\nF1336825721.949506\nsba(iOWContexts\nContext\np79\n(dp80\ng17\nS''\nsg18\nS''\nsg19\nF1336825721.949506\nsg20\nS'/home/ciopper90/tesi/Source/audio.tab'\np81\nsba(iOWContexts\nContext\np82\n(dp83\ng17\nS''\nsg18\nS''\nsg19\nF1336825721.949506\nsg20\nS'/home/ciopper90/tesi/Source/audio.tab'\np84\nsba(iOWContexts\nContext\np85\n(dp86\ng18\nS''\nsg17\nS''\nsg20\nS'/home/ciopper90/tesi/Source/audio.tab'\np87\nsg19\nF1336825721.949506\nsba(iOWContexts\nContext\np88\n(dp89\ng17\nS''\nsg18\nS''\nsg19\nF1336825721.7724559\nsg20\nS'/home/ciopper90/tesi/Source/audio.tab'\np90\nsba(iOWContexts\nContext\np91\n(dp92\ng18\nS''\nsg17\nS''\nsg20\nS'/home/ciopper90/tesi/Source/audio.tab'\np93\nsg19\nF1336825721.7724559\nsba(iOWContexts\nContext\np94\n(dp95\ng18\nS''\nsg17\nS''\nsg20\nS'/home/ciopper90/tesi/Source/audio.tab'\np96\nsg19\nF1336825721.7724559\nsba(iOWContexts\nContext\np97\n(dp98\ng17\nS''\nsg18\nS''\nsg19\nF1336825721.7724559\nsg20\nS'/home/ciopper90/tesi/Source/audio.tab'\np99\nsba(iOWContexts\nContext\np100\n(dp101\ng18\nS''\nsg17\nS''\nsg20\nS''\nsg19\nF1336814997.170311\nsba(iOWContexts\nContext\np102\n(dp103\ng18\nS''\nsg17\nS''\nsg20\nS''\nsg19\nF1336814997.170311\nsba(iOWContexts\nContext\np104\n(dp105\ng17\nS''\nsg18\nS''\nsg19\nF1336814997.170311\nsg20\nS''\nsba(iOWContexts\nContext\np106\n(dp107\ng17\nS''\nsg18\nS''\nsg19\nF1336814997.170311\nsg20\nS''\nsba(iOWContexts\nContext\np108\n(dp109\ng17\nS''\nsg18\nS''\nsg19\nF1336814997.170311\nsg20\nS''\nsba(iOWContexts\nContext\np110\n(dp111\ng17\nS''\nsg18\nS''\nsg19\nF1336814997.170311\nsg20\nS''\nsba(iOWContexts\nContext\np112\n(dp113\ng18\nS''\nsg17\nS''\nsg20\nS''\nsg19\nF1336814997.170311\nsba(iOWContexts\nContext\np114\n(dp115\ng18\nS''\nsg17\nS''\nsg20\nS''\nsg19\nF1336814997.170311\nsba(iOWContexts\nContext\np116\n(dp117\ng17\nS''\nsg18\nS''\nsg19\nF1336814997.170311\nsg20\nS''\nsba(iOWContexts\nContext\np118\n(dp119\ng17\nS''\nsg18\nS''\nsg19\nF1336814997.170311\nsg20\nS''\nsba(iOWContexts\nContext\np120\n(dp121\ng18\nS''\nsg17\nS''\nsg20\nS''\nsg19\nF1336814997.170311\nsba(iOWContexts\nContext\np122\n(dp123\ng18\nS''\nsg17\nS''\nsg20\nS''\nsg19\nF1336814997.170311\nsba(iOWContexts\nContext\np124\n(dp125\ng18\nS''\nsg17\nS''\nsg20\nS''\nsg19\nF1336814997.170311\nsba(iOWContexts\nContext\np126\n(dp127\ng18\nS''\nsg17\nS''\nsg20\nS''\nsg19\nF1336814997.170311\nsba(iOWContexts\nContext\np128\n(dp129\ng17\nS''\nsg18\nS''\nsg19\nF1336814997.170311\nsg20\nS''\nsba(iOWContexts\nContext\np130\n(dp131\ng17\nS''\nsg18\nS''\nsg19\nF1336814997.170311\nsg20\nS''\nsba(iOWContexts\nContext\np132\n(dp133\ng18\nS''\nsg17\nS''\nsg20\nS'/home/ciopper90/test.tab'\np134\nsg19\nF1336814988.61605\nsba(iOWContexts\nContext\np135\n(dp136\ng18\nS''\nsg17\nS''\nsg20\nS'/home/ciopper90/test.tab'\np137\nsg19\nF1336814988.61605\nsba(iOWContexts\nContext\np138\n(dp139\ng17\nS''\nsg18\nS''\nsg19\nF1336814988.61605\nsg20\nS'/home/ciopper90/test.tab'\np140\nsbasS'recentFiles'\np141\n(lp142\ng21\nas."
p15
sS'k Nearest Neighbours'
p16
S"(dp1\nS'normalize'\np2\nI1\nsS'widgetShown'\np3\nI0\nsS'name'\np4\nS'kNN'\np5\nsS'ranks'\np6\nI0\nsS'widgetHeight'\np7\nI678\nsS'k'\nI5\nsS'widgetYPosition'\np8\nI0\nsS'ignoreUnknowns'\np9\nI0\nsS'metrics'\np10\nI0\nsS'savedWidgetGeometry'\np11\nS'\\x01\\xd9\\xd0\\xcb\\x00\\x01\\x00\\x00\\x00\\x00\\x00\\x00\\x00\\x00\\x00\\x00\\x00\\x00\\x03\\xe1\\x00\\x00\\x02\\xa5\\x00\\x00\\x00\\x00\\x00\\x00\\x00\\x00\\x00\\x00\\x03\\xe1\\x00\\x00\\x02\\xa5\\x00\\x00\\x00\\x00\\x00\\x00'\np12\nsS'widgetWidth'\np13\nI994\nsS'widgetXPosition'\np14\nI0\ns."
p17
sS'Classification Tree'
p18
S"(dp1\nS'subset'\np2\nI0\nsS'postMaj'\np3\nI1\nsS'widgetXPosition'\np4\nNsS'widgetYPosition'\np5\nNsS'postMPruning'\np6\nI1\nsS'relK'\np7\nI5\nsS'widgetWidth'\np8\nNsS'relM'\np9\nI100\nsS'preNodeInstP'\np10\nI5\nsS'preLeafInst'\np11\nI1\nsS'widgetHeight'\np12\nNsS'limitDepth'\np13\nI00\nsS'savedWidgetGeometry'\np14\nNsS'estim'\np15\nI0\nsS'bin'\np16\nI0\nsS'widgetShown'\np17\nNsS'postM'\np18\nF2\nsS'maxDepth'\np19\nI100\nsS'preLeafInstP'\np20\nI2\nsS'preNodeInst'\np21\nI0\nsS'preNodeMaj'\np22\nI0\nsS'preNodeMajP'\np23\nI95\nsS'name'\np24\nS'Classification Tree'\np25\ns."
p19
s.