(dp1
S'Data Sampler'
p2
S"(dp1\nS'CVFolds'\np2\nI10\nsS'widgetXPosition'\np3\nI0\nsS'widgetYPosition'\np4\nI0\nsS'LOO'\np5\nI1\nsS'widgetWidth'\np6\nI1014\nsS'selPercentage'\np7\nI80\nsS'Repeat'\np8\nI0\nsS'RandomSeed'\np9\nI1\nsS'pGroups'\np10\n(lp11\nF0.10000000000000001\naF0.25\naF0.5\nasS'widgetHeight'\np12\nI654\nsS'SelectType'\np13\nI0\nsS'savedWidgetGeometry'\np14\nS'\\x01\\xd9\\xd0\\xcb\\x00\\x01\\x00\\x00\\x00\\x00\\x00\\x00\\x00\\x00\\x00\\x00\\x00\\x00\\x03\\xf5\\x00\\x00\\x02\\x8d\\x00\\x00\\x00\\x00\\x00\\x00\\x00\\x00\\x00\\x00\\x03\\xf5\\x00\\x00\\x02\\x8d\\x00\\x00\\x00\\x00\\x00\\x00'\np15\nsS'nGroups'\np16\nI3\nsS'widgetShown'\np17\nI0\nsS'GroupSeed'\np18\nI1\nsS'Stratified'\np19\nI1\nsS'outFold'\np20\nI1\nsS'useCases'\np21\nI0\nsS'localContextsVersion'\np22\n(I100\nI0\ntp23\nsS'localContexts'\np24\n(lp25\n(iOWContexts\nContext\np26\n(dp27\nS'metas'\np28\n(dp29\nsS'values'\np30\n(dp31\nS'nCases'\np32\n(I25\nI-2\ntp33\nsg7\n(I80\nI-2\ntp34\nssS'time'\np35\nF1339073016.269783\nsS'attributes'\np36\n(dp37\nS'sc'\np38\ncorange\n__pickleLoaderNamedConstants\np39\n(S'Variable_Type'\n(I2\nttRp40\nsS'lefr'\np41\ng39\n(S'Variable_Type'\n(I2\nttRp42\nsS'type'\np43\ng39\n(S'Variable_Type'\n(I1\nttRp44\nsS'name'\np45\ng39\n(S'Variable_Type'\n(I1\nttRp46\nsS'zcr'\np47\ng39\n(S'Variable_Type'\n(I2\nttRp48\nssS'noCopy'\np49\n(lp50\nS'orderedDomain'\np51\nasba(iOWContexts\nContext\np52\n(dp53\ng49\n(lp54\nS'orderedDomain'\np55\nasg36\n(dp56\nS'57.958979'\np57\ng39\n(S'Variable_Type'\n(I1\nttRp58\nsS'428.000000'\np59\ng39\n(S'Variable_Type'\n(I1\nttRp60\nsS'ristorante'\np61\ng39\n(S'Variable_Type'\n(I1\nttRp62\nsS'0.190071'\np63\ng39\n(S'Variable_Type'\n(I1\nttRp64\nsS'ristorante_02_000_000'\np65\ng39\n(S'Variable_Type'\n(I1\nttRp66\nssg28\n(dp67\nsg30\n(dp68\nS'nCases'\np69\n(I25\nI-2\ntp70\nsS'selPercentage'\np71\n(I80\nI-2\ntp72\nssg35\nF1338205027.345752\nsba(iOWContexts\nContext\np73\n(dp74\ng49\n(lp75\nS'orderedDomain'\np76\nasg36\n(dp77\nS'sc'\np78\ng39\n(S'Variable_Type'\n(I2\nttRp79\nsS'zcf'\np80\ng39\n(S'Variable_Type'\n(I2\nttRp81\nsS'type'\np82\ng39\n(S'Variable_Type'\n(I1\nttRp83\nsS'name'\np84\ng39\n(S'Variable_Type'\n(I1\nttRp85\nsS'miao'\np86\ng39\n(S'Variable_Type'\n(I2\nttRp87\nssg28\n(dp88\nsg30\n(dp89\nS'nCases'\np90\n(I25\nI-2\ntp91\nsS'selPercentage'\np92\n(I80\nI-2\ntp93\nssg35\nF1338202166.0363269\nsba(iOWContexts\nContext\np94\n(dp95\ng49\n(lp96\nS'orderedDomain'\np97\nasg36\n(dp98\nS'94.125089'\np99\ng39\n(S'Variable_Type'\n(I1\nttRp100\nsS'0.297872'\np101\ng39\n(S'Variable_Type'\n(I1\nttRp102\nsS'strada'\np103\ng39\n(S'Variable_Type'\n(I1\nttRp104\nsS'477.000000'\np105\ng39\n(S'Variable_Type'\n(I1\nttRp106\nsS'strada_02_000_000'\np107\ng39\n(S'Variable_Type'\n(I1\nttRp108\nssg28\n(dp109\nsg30\n(dp110\nS'nCases'\np111\n(I25\nI-2\ntp112\nsS'selPercentage'\np113\n(I80\nI-2\ntp114\nssg35\nF1338194433.506546\nsba(iOWContexts\nContext\np115\n(dp116\ng30\n(dp117\nS'nCases'\np118\n(I25\nI-2\ntp119\nsS'selPercentage'\np120\n(I80\nI-2\ntp121\nssg36\n(dp122\nS'handicapped-infants'\np123\ng39\n(S'Variable_Type'\n(I1\nttRp124\nsS'superfund-right-to-sue'\np125\ng39\n(S'Variable_Type'\n(I1\nttRp126\nsS'duty-free-exports'\np127\ng39\n(S'Variable_Type'\n(I1\nttRp128\nsS'aid-to-nicaraguan-contras'\np129\ng39\n(S'Variable_Type'\n(I1\nttRp130\nsS'immigration'\np131\ng39\n(S'Variable_Type'\n(I1\nttRp132\nsS'crime'\np133\ng39\n(S'Variable_Type'\n(I1\nttRp134\nsS'el-salvador-aid'\np135\ng39\n(S'Variable_Type'\n(I1\nttRp136\nsS'education-spending'\np137\ng39\n(S'Variable_Type'\n(I1\nttRp138\nsS'synfuels-corporation-cutback'\np139\ng39\n(S'Variable_Type'\n(I1\nttRp140\nsS'religious-groups-in-schools'\np141\ng39\n(S'Variable_Type'\n(I1\nttRp142\nsS'mx-missile'\np143\ng39\n(S'Variable_Type'\n(I1\nttRp144\nsS'anti-satellite-test-ban'\np145\ng39\n(S'Variable_Type'\n(I1\nttRp146\nsS'water-project-cost-sharing'\np147\ng39\n(S'Variable_Type'\n(I1\nttRp148\nsS'party'\np149\ng39\n(S'Variable_Type'\n(I1\nttRp150\nsS'export-administration-act-south-africa'\np151\ng39\n(S'Variable_Type'\n(I1\nttRp152\nsS'adoption-of-the-budget-resolution'\np153\ng39\n(S'Variable_Type'\n(I1\nttRp154\nsS'physician-fee-freeze'\np155\ng39\n(S'Variable_Type'\n(I1\nttRp156\nssg28\n(dp157\nsg49\n(lp158\nS'orderedDomain'\np159\nasg35\nF1338144736.288969\nsba(iOWContexts\nContext\np160\n(dp161\ng49\n(lp162\nS'orderedDomain'\np163\nasg36\n(dp164\nS'sc'\np165\ng39\n(S'Variable_Type'\n(I2\nttRp166\nsS'lefr'\np167\ng39\n(S'Variable_Type'\n(I2\nttRp168\nsS'zcr'\np169\ng39\n(S'Variable_Type'\n(I2\nttRp170\nsS'tipo'\np171\ng39\n(S'Variable_Type'\n(I1\nttRp172\nssg28\n(dp173\nsg30\n(dp174\nS'nCases'\np175\n(I25\nI-2\ntp176\nsS'selPercentage'\np177\n(I80\nI-2\ntp178\nssg35\nF1337963609.9601851\nsba(iOWContexts\nContext\np179\n(dp180\ng30\n(dp181\nS'nCases'\np182\n(I25\nI-2\ntp183\nsS'selPercentage'\np184\n(I80\nI-2\ntp185\nssg36\n(dp186\nS'sc'\np187\ng39\n(S'Variable_Type'\n(I2\nttRp188\nsS'lefr'\np189\ng39\n(S'Variable_Type'\n(I2\nttRp190\nsS'name'\np191\ng39\n(S'Variable_Type'\n(I1\nttRp192\nsS'zcr'\np193\ng39\n(S'Variable_Type'\n(I2\nttRp194\nsS'tipo'\np195\ng39\n(S'Variable_Type'\n(I1\nttRp196\nssg28\n(dp197\nsg49\n(lp198\ng163\nasg35\nF1337859161.3422561\nsba(iOWContexts\nContext\np199\n(dp200\ng30\n(dp201\nS'nCases'\np202\n(I25\nI-2\ntp203\nsS'selPercentage'\np204\n(I80\nI-2\ntp205\nssg36\n(dp206\nS'sc'\np207\ng39\n(S'Variable_Type'\n(I1\nttRp208\nsS'lefr'\np209\ng39\n(S'Variable_Type'\n(I1\nttRp210\nsS'tipo'\np211\ng39\n(S'Variable_Type'\n(I1\nttRp212\nsS'zcr'\np213\ng39\n(S'Variable_Type'\n(I1\nttRp214\nssg28\n(dp215\nsg49\n(lp216\nS'orderedDomain'\np217\nasg35\nF1337503306.200057\nsba(iOWContexts\nContext\np218\n(dp219\ng49\n(lp220\ng217\nasg36\n(dp221\nS'sc'\np222\ng39\n(S'Variable_Type'\n(I1\nttRp223\nsS'lefr'\np224\ng39\n(S'Variable_Type'\n(I1\nttRp225\nsS'zcr'\np226\ng39\n(S'Variable_Type'\n(I1\nttRp227\nsS'tipo'\np228\ng39\n(S'Variable_Type'\n(I1\nttRp229\nssg28\n(dp230\nsg30\n(dp231\nS'nCases'\np232\n(I25\nI-2\ntp233\nsS'selPercentage'\np234\n(I80\nI-2\ntp235\nssg35\nF1337289207.759084\nsba(iOWContexts\nContext\np236\n(dp237\ng49\n(lp238\nS'orderedDomain'\np239\nasg36\n(dp240\nS'campione'\np241\ng39\n(S'Variable_Type'\n(I1\nttRp242\nsS'sc'\np243\ng39\n(S'Variable_Type'\n(I1\nttRp244\nsS'zcr'\np245\ng39\n(S'Variable_Type'\n(I1\nttRp246\nsS'tipo'\np247\ng39\n(S'Variable_Type'\n(I1\nttRp248\nsS'lefr'\np249\ng39\n(S'Variable_Type'\n(I1\nttRp250\nssg28\n(dp251\nsg30\n(dp252\ng232\n(I25\nI-2\ntp253\nsg234\n(I80\nI-2\ntp254\nssg35\nF1337288919.2393811\nsba(iOWContexts\nContext\np255\n(dp256\ng30\n(dp257\nS'nCases'\np258\n(I25\nI-2\ntp259\nsS'selPercentage'\np260\n(I70\nI-2\ntp261\nssg36\n(dp262\nS'campione'\np263\ng39\n(S'Variable_Type'\n(I1\nttRp264\nsS'sc'\np265\ng39\n(S'Variable_Type'\n(I1\nttRp266\nsS'tipo'\np267\ng39\n(S'Variable_Type'\n(I1\nttRp268\nsS'zcr'\np269\ng39\n(S'Variable_Type'\n(I1\nttRp270\nsS'lefr'\np271\ng39\n(S'Variable_Type'\n(I1\nttRp272\nssg28\n(dp273\nsg49\n(lp274\nS'orderedDomain'\np275\nasg35\nF1337195048.6201329\nsba(iOWContexts\nContext\np276\n(dp277\ng49\n(lp278\nS'orderedDomain'\np279\nasg36\n(dp280\nS'handicapped-infants'\np281\ng39\n(S'Variable_Type'\n(I1\nttRp282\nsS'water-project-cost-sharing'\np283\ng39\n(S'Variable_Type'\n(I1\nttRp284\nsS'education-spending'\np285\ng39\n(S'Variable_Type'\n(I1\nttRp286\nsS'adoption-of-the-budget-resolution'\np287\ng39\n(S'Variable_Type'\n(I1\nttRp288\nsS'immigration'\np289\ng39\n(S'Variable_Type'\n(I1\nttRp290\nsS'crime'\np291\ng39\n(S'Variable_Type'\n(I1\nttRp292\nsS'el-salvador-aid'\np293\ng39\n(S'Variable_Type'\n(I1\nttRp294\nsS'superfund-right-to-sue'\np295\ng39\n(S'Variable_Type'\n(I1\nttRp296\nsS'synfuels-corporation-cutback'\np297\ng39\n(S'Variable_Type'\n(I1\nttRp298\nsS'religious-groups-in-schools'\np299\ng39\n(S'Variable_Type'\n(I1\nttRp300\nsS'mx-missile'\np301\ng39\n(S'Variable_Type'\n(I1\nttRp302\nsS'anti-satellite-test-ban'\np303\ng39\n(S'Variable_Type'\n(I1\nttRp304\nsS'duty-free-exports'\np305\ng39\n(S'Variable_Type'\n(I1\nttRp306\nsS'party'\np307\ng39\n(S'Variable_Type'\n(I1\nttRp308\nsS'export-administration-act-south-africa'\np309\ng39\n(S'Variable_Type'\n(I1\nttRp310\nsS'aid-to-nicaraguan-contras'\np311\ng39\n(S'Variable_Type'\n(I1\nttRp312\nsS'physician-fee-freeze'\np313\ng39\n(S'Variable_Type'\n(I1\nttRp314\nssg28\n(dp315\nsg30\n(dp316\nS'nCases'\np317\n(I25\nI-2\ntp318\nsS'selPercentage'\np319\n(I80\nI-2\ntp320\nssg35\nF1337161898.4979761\nsba(iOWContexts\nContext\np321\n(dp322\ng49\n(lp323\nS'orderedDomain'\np324\nasg36\n(dp325\nS'campione'\np326\ng39\n(S'Variable_Type'\n(I1\nttRp327\nsS'sc'\np328\ng39\n(S'Variable_Type'\n(I1\nttRp329\nsS'zcr'\np330\ng39\n(S'Variable_Type'\n(I1\nttRp331\nsS'tipo'\np332\ng39\n(S'Variable_Type'\n(I1\nttRp333\nsS'lefr'\np334\ng39\n(S'Variable_Type'\n(I1\nttRp335\nssg28\n(dp336\nsg30\n(dp337\nS'nCases'\np338\n(I25\nI-2\ntp339\nsS'selPercentage'\np340\n(I80\nI-2\ntp341\nssg35\nF1337158860.534095\nsba(iOWContexts\nContext\np342\n(dp343\ng49\n(lp344\nS'orderedDomain'\np345\nasg36\n(dp346\nS'mode'\np347\ng39\n(S'Variable_Type'\n(I6\nttRp348\nssg28\n(dp349\nsg30\n(dp350\nS'nCases'\np351\n(I25\nI-2\ntp352\nsS'selPercentage'\np353\n(I60\nI-2\ntp354\nssg35\nF1336575571.0157909\nsba(iOWContexts\nContext\np355\n(dp356\ng30\n(dp357\nS'nCases'\np358\n(I25\nI-2\ntp359\nsS'selPercentage'\np360\n(I60\nI-2\ntp361\nssg36\n(dp362\nS'mode'\np363\ng39\n(S'Variable_Type'\n(I6\nttRp364\nssg28\n(dp365\nsg49\n(lp366\nS'orderedDomain'\np367\nasg35\nF1336575571.0157909\nsba(iOWContexts\nContext\np368\n(dp369\ng49\n(lp370\nS'orderedDomain'\np371\nasg36\n(dp372\nS'mode'\np373\ng39\n(S'Variable_Type'\n(I6\nttRp374\nssg28\n(dp375\nsg30\n(dp376\nS'nCases'\np377\n(I25\nI-2\ntp378\nsS'selPercentage'\np379\n(I60\nI-2\ntp380\nssg35\nF1336575571.0157909\nsba(iOWContexts\nContext\np381\n(dp382\ng30\n(dp383\nS'nCases'\np384\n(I25\nI-2\ntp385\nsS'selPercentage'\np386\n(I60\nI-2\ntp387\nssg36\n(dp388\nS'mode'\np389\ng39\n(S'Variable_Type'\n(I6\nttRp390\nssg28\n(dp391\nsg49\n(lp392\nS'orderedDomain'\np393\nasg35\nF1336575477.553946\nsba(iOWContexts\nContext\np394\n(dp395\ng49\n(lp396\nS'orderedDomain'\np397\nasg36\n(dp398\nS'mode'\np399\ng39\n(S'Variable_Type'\n(I6\nttRp400\nssg28\n(dp401\nsg30\n(dp402\nS'nCases'\np403\n(I25\nI-2\ntp404\nsS'selPercentage'\np405\n(I60\nI-2\ntp406\nssg35\nF1336575477.553946\nsba(iOWContexts\nContext\np407\n(dp408\ng30\n(dp409\nS'nCases'\np410\n(I25\nI-2\ntp411\nsS'selPercentage'\np412\n(I60\nI-2\ntp413\nssg36\n(dp414\nS'mode'\np415\ng39\n(S'Variable_Type'\n(I6\nttRp416\nssg28\n(dp417\nsg49\n(lp418\nS'orderedDomain'\np419\nasg35\nF1336575477.553946\nsba(iOWContexts\nContext\np420\n(dp421\ng30\n(dp422\nS'nCases'\np423\n(I25\nI-2\ntp424\nsS'selPercentage'\np425\n(I60\nI-2\ntp426\nssg36\n(dp427\nS'typed'\np428\ng39\n(S'Variable_Type'\n(I6\nttRp429\nsS'mode'\np430\ng39\n(S'Variable_Type'\n(I6\nttRp431\nssg28\n(dp432\nsg49\n(lp433\nS'orderedDomain'\np434\nasg35\nF1336569863.031791\nsba(iOWContexts\nContext\np435\n(dp436\ng30\n(dp437\nS'nCases'\np438\n(I25\nI-2\ntp439\nsS'selPercentage'\np440\n(I60\nI-2\ntp441\nssg36\n(dp442\nS'typed'\np443\ng39\n(S'Variable_Type'\n(I6\nttRp444\nsS'mode'\np445\ng39\n(S'Variable_Type'\n(I6\nttRp446\nssg28\n(dp447\nsg49\n(lp448\nS'orderedDomain'\np449\nasg35\nF1336569863.031791\nsba(iOWContexts\nContext\np450\n(dp451\ng49\n(lp452\nS'orderedDomain'\np453\nasg36\n(dp454\nS'typed'\np455\ng39\n(S'Variable_Type'\n(I6\nttRp456\nsS'mode'\np457\ng39\n(S'Variable_Type'\n(I6\nttRp458\nssg28\n(dp459\nsg30\n(dp460\nS'nCases'\np461\n(I25\nI-2\ntp462\nsS'selPercentage'\np463\n(I60\nI-2\ntp464\nssg35\nF1336569863.031791\nsba(iOWContexts\nContext\np465\n(dp466\ng49\n(lp467\nS'orderedDomain'\np468\nasg36\n(dp469\nS'typed'\np470\ng39\n(S'Variable_Type'\n(I6\nttRp471\nsS'mode'\np472\ng39\n(S'Variable_Type'\n(I6\nttRp473\nssg28\n(dp474\nsg30\n(dp475\nS'nCases'\np476\n(I25\nI-2\ntp477\nsS'selPercentage'\np478\n(I60\nI-2\ntp479\nssg35\nF1336569863.031791\nsba(iOWContexts\nContext\np480\n(dp481\ng30\n(dp482\nS'nCases'\np483\n(I25\nI-2\ntp484\nsS'selPercentage'\np485\n(I60\nI-2\ntp486\nssg36\n(dp487\nS'typed'\np488\ng39\n(S'Variable_Type'\n(I6\nttRp489\nsS'mode'\np490\ng39\n(S'Variable_Type'\n(I6\nttRp491\nssg28\n(dp492\nsg49\n(lp493\nS'orderedDomain'\np494\nasg35\nF1336569863.031791\nsba(iOWContexts\nContext\np495\n(dp496\ng30\n(dp497\nS'nCases'\np498\n(I25\nI-2\ntp499\nsS'selPercentage'\np500\n(I60\nI-2\ntp501\nssg36\n(dp502\nS'typed'\np503\ng39\n(S'Variable_Type'\n(I6\nttRp504\nsS'mode'\np505\ng39\n(S'Variable_Type'\n(I6\nttRp506\nssg28\n(dp507\nsg49\n(lp508\nS'orderedDomain'\np509\nasg35\nF1336569863.031791\nsba(iOWContexts\nContext\np510\n(dp511\ng30\n(dp512\ng423\n(I25\nI-2\ntp513\nsg425\n(I60\nI-2\ntp514\nssg36\n(dp515\nS'typed'\np516\ng39\n(S'Variable_Type'\n(I6\nttRp517\nsS'mode'\np518\ng39\n(S'Variable_Type'\n(I6\nttRp519\nssg28\n(dp520\nsg49\n(lp521\ng393\nasg35\nF1336569405.7775619\nsba(iOWContexts\nContext\np522\n(dp523\ng30\n(dp524\ng438\n(I25\nI-2\ntp525\nsg440\n(I60\nI-2\ntp526\nssg36\n(dp527\nS'typed'\np528\ng39\n(S'Variable_Type'\n(I6\nttRp529\nsS'mode'\np530\ng39\n(S'Variable_Type'\n(I6\nttRp531\nssg28\n(dp532\nsg49\n(lp533\ng345\nasg35\nF1336569405.7775619\nsba(iOWContexts\nContext\np534\n(dp535\ng49\n(lp536\ng397\nasg36\n(dp537\nS'typed'\np538\ng39\n(S'Variable_Type'\n(I6\nttRp539\nsS'mode'\np540\ng39\n(S'Variable_Type'\n(I6\nttRp541\nssg28\n(dp542\nsg30\n(dp543\ng461\n(I25\nI-2\ntp544\nsg463\n(I60\nI-2\ntp545\nssg35\nF1336569405.7775619\nsba(iOWContexts\nContext\np546\n(dp547\ng49\n(lp548\ng367\nasg36\n(dp549\nS'typed'\np550\ng39\n(S'Variable_Type'\n(I6\nttRp551\nsS'mode'\np552\ng39\n(S'Variable_Type'\n(I6\nttRp553\nssg28\n(dp554\nsg30\n(dp555\ng476\n(I25\nI-2\ntp556\nsg478\n(I60\nI-2\ntp557\nssg35\nF1336569405.7775619\nsba(iOWContexts\nContext\np558\n(dp559\ng30\n(dp560\ng483\n(I25\nI-2\ntp561\nsg485\n(I60\nI-2\ntp562\nssg36\n(dp563\nS'typed'\np564\ng39\n(S'Variable_Type'\n(I6\nttRp565\nsS'mode'\np566\ng39\n(S'Variable_Type'\n(I6\nttRp567\nssg28\n(dp568\nsg49\n(lp569\ng419\nasg35\nF1336569405.7775619\nsba(iOWContexts\nContext\np570\n(dp571\ng30\n(dp572\ng498\n(I25\nI-2\ntp573\nsg500\n(I60\nI-2\ntp574\nssg36\n(dp575\nS'typed'\np576\ng39\n(S'Variable_Type'\n(I6\nttRp577\nsS'mode'\np578\ng39\n(S'Variable_Type'\n(I6\nttRp579\nssg28\n(dp580\nsg49\n(lp581\ng371\nasg35\nF1336569405.7775619\nsbasg32\nI25\nsS'Folds'\np582\nI1\nsS'UseSpecificSeed'\np583\nI0\nsS'GroupText'\np584\nS'0.1,0.25,0.5'\np585\nsS'CVFoldsInternal'\np586\nI10\ns."
p3
sS'Test Learners'
p4
S"(dp1\nS'selectedCScores'\np2\nccopy_reg\n_reconstructor\np3\n(c__builtin__\nlist\np4\ng4\n(ttRp5\nI0\naI1\naI2\naI3\naI8\nasS'localContextsVersion'\np6\n(I100\nI0\ntp7\nsS'selectedRScores'\np8\ng3\n(g4\ng4\n(ttRp9\nI1\naI4\naI6\nasS'pLearning'\np10\nI70\nsS'widgetHeight'\np11\nI654\nsS'widgetXPosition'\np12\nI0\nsS'widgetYPosition'\np13\nI0\nsS'precision'\np14\nI4\nsS'widgetShown'\np15\nI0\nsS'pRepeat'\np16\nI10\nsS'widgetWidth'\np17\nI774\nsS'resampling'\np18\nI0\nsS'localContexts'\np19\n(lp20\n(iOWContexts\nContext\np21\n(dp22\nS'metas'\np23\n(dp24\nsS'values'\np25\n(dp26\nS'targetClass'\np27\n(I4\nI-2\ntp28\nssS'time'\np29\nF1339073016.2741389\nsS'attributes'\np30\n(dp31\nS'sc'\np32\ncorange\n__pickleLoaderNamedConstants\np33\n(S'Variable_Type'\n(I2\nttRp34\nsS'lefr'\np35\ng33\n(S'Variable_Type'\n(I2\nttRp36\nsS'type'\np37\ng33\n(S'Variable_Type'\n(I1\nttRp38\nsS'name'\np39\ng33\n(S'Variable_Type'\n(I1\nttRp40\nsS'zcr'\np41\ng33\n(S'Variable_Type'\n(I2\nttRp42\nssS'noCopy'\np43\n(lp44\nS'orderedDomain'\np45\nasba(iOWContexts\nContext\np46\n(dp47\ng43\n(lp48\nS'orderedDomain'\np49\nasg30\n(dp50\nS'57.958979'\np51\ng33\n(S'Variable_Type'\n(I1\nttRp52\nsS'428.000000'\np53\ng33\n(S'Variable_Type'\n(I1\nttRp54\nsS'ristorante'\np55\ng33\n(S'Variable_Type'\n(I1\nttRp56\nsS'0.190071'\np57\ng33\n(S'Variable_Type'\n(I1\nttRp58\nsS'ristorante_02_000_000'\np59\ng33\n(S'Variable_Type'\n(I1\nttRp60\nssg23\n(dp61\nsg25\n(dp62\nS'targetClass'\np63\n(I0\nI-2\ntp64\nssg29\nF1338205027.347878\nsba(iOWContexts\nContext\np65\n(dp66\ng43\n(lp67\nS'orderedDomain'\np68\nasg30\n(dp69\nS'sc'\np70\ng33\n(S'Variable_Type'\n(I2\nttRp71\nsS'zcf'\np72\ng33\n(S'Variable_Type'\n(I2\nttRp73\nsS'type'\np74\ng33\n(S'Variable_Type'\n(I1\nttRp75\nsS'name'\np76\ng33\n(S'Variable_Type'\n(I1\nttRp77\nsS'miao'\np78\ng33\n(S'Variable_Type'\n(I2\nttRp79\nssg23\n(dp80\nsg25\n(dp81\nS'targetClass'\np82\n(I0\nI-2\ntp83\nssg29\nF1338202166.0519111\nsba(iOWContexts\nContext\np84\n(dp85\ng25\n(dp86\nS'targetClass'\np87\n(I0\nI-2\ntp88\nssg30\n(dp89\nS'sc'\np90\ng33\n(S'Variable_Type'\n(I2\nttRp91\nsS'zcf'\np92\ng33\n(S'Variable_Type'\n(I2\nttRp93\nsS'type'\np94\ng33\n(S'Variable_Type'\n(I1\nttRp95\nsS'name'\np96\ng33\n(S'Variable_Type'\n(I1\nttRp97\nsS'miao'\np98\ng33\n(S'Variable_Type'\n(I2\nttRp99\nssg23\n(dp100\nsg43\n(lp101\nS'orderedDomain'\np102\nasg29\nF1338195415.2812879\nsba(iOWContexts\nContext\np103\n(dp104\ng25\n(dp105\nS'targetClass'\np106\n(I0\nI-2\ntp107\nssg30\n(dp108\nS'94.125089'\np109\ng33\n(S'Variable_Type'\n(I1\nttRp110\nsS'0.297872'\np111\ng33\n(S'Variable_Type'\n(I1\nttRp112\nsS'strada'\np113\ng33\n(S'Variable_Type'\n(I1\nttRp114\nsS'477.000000'\np115\ng33\n(S'Variable_Type'\n(I1\nttRp116\nsS'strada_02_000_000'\np117\ng33\n(S'Variable_Type'\n(I1\nttRp118\nssg23\n(dp119\nsg43\n(lp120\nS'orderedDomain'\np121\nasg29\nF1338194433.498831\nsba(iOWContexts\nContext\np122\n(dp123\ng43\n(lp124\nS'orderedDomain'\np125\nasg30\n(dp126\nS'94.125089'\np127\ng33\n(S'Variable_Type'\n(I1\nttRp128\nsS'0.297872'\np129\ng33\n(S'Variable_Type'\n(I1\nttRp130\nsS'strada'\np131\ng33\n(S'Variable_Type'\n(I1\nttRp132\nsS'477.000000'\np133\ng33\n(S'Variable_Type'\n(I1\nttRp134\nsS'strada_02_000_000'\np135\ng33\n(S'Variable_Type'\n(I1\nttRp136\nssg23\n(dp137\nsg25\n(dp138\nS'targetClass'\np139\n(I0\nI-2\ntp140\nssg29\nF1338194433.498831\nsba(iOWContexts\nContext\np141\n(dp142\ng43\n(lp143\ng68\nasg30\n(dp144\nS'handicapped-infants'\np145\ng33\n(S'Variable_Type'\n(I1\nttRp146\nsS'water-project-cost-sharing'\np147\ng33\n(S'Variable_Type'\n(I1\nttRp148\nsS'education-spending'\np149\ng33\n(S'Variable_Type'\n(I1\nttRp150\nsS'adoption-of-the-budget-resolution'\np151\ng33\n(S'Variable_Type'\n(I1\nttRp152\nsS'immigration'\np153\ng33\n(S'Variable_Type'\n(I1\nttRp154\nsS'crime'\np155\ng33\n(S'Variable_Type'\n(I1\nttRp156\nsS'el-salvador-aid'\np157\ng33\n(S'Variable_Type'\n(I1\nttRp158\nsS'superfund-right-to-sue'\np159\ng33\n(S'Variable_Type'\n(I1\nttRp160\nsS'synfuels-corporation-cutback'\np161\ng33\n(S'Variable_Type'\n(I1\nttRp162\nsS'religious-groups-in-schools'\np163\ng33\n(S'Variable_Type'\n(I1\nttRp164\nsS'mx-missile'\np165\ng33\n(S'Variable_Type'\n(I1\nttRp166\nsS'anti-satellite-test-ban'\np167\ng33\n(S'Variable_Type'\n(I1\nttRp168\nsS'duty-free-exports'\np169\ng33\n(S'Variable_Type'\n(I1\nttRp170\nsS'party'\np171\ng33\n(S'Variable_Type'\n(I1\nttRp172\nsS'export-administration-act-south-africa'\np173\ng33\n(S'Variable_Type'\n(I1\nttRp174\nsS'aid-to-nicaraguan-contras'\np175\ng33\n(S'Variable_Type'\n(I1\nttRp176\nsS'physician-fee-freeze'\np177\ng33\n(S'Variable_Type'\n(I1\nttRp178\nssg23\n(dp179\nsg25\n(dp180\nS'targetClass'\np181\n(I0\nI-2\ntp182\nssg29\nF1338144735.958652\nsba(iOWContexts\nContext\np183\n(dp184\ng25\n(dp185\nS'targetClass'\np186\n(I0\nI-2\ntp187\nssg30\n(dp188\nS'handicapped-infants'\np189\ng33\n(S'Variable_Type'\n(I1\nttRp190\nsS'superfund-right-to-sue'\np191\ng33\n(S'Variable_Type'\n(I1\nttRp192\nsS'duty-free-exports'\np193\ng33\n(S'Variable_Type'\n(I1\nttRp194\nsS'aid-to-nicaraguan-contras'\np195\ng33\n(S'Variable_Type'\n(I1\nttRp196\nsS'immigration'\np197\ng33\n(S'Variable_Type'\n(I1\nttRp198\nsS'crime'\np199\ng33\n(S'Variable_Type'\n(I1\nttRp200\nsS'el-salvador-aid'\np201\ng33\n(S'Variable_Type'\n(I1\nttRp202\nsS'education-spending'\np203\ng33\n(S'Variable_Type'\n(I1\nttRp204\nsS'synfuels-corporation-cutback'\np205\ng33\n(S'Variable_Type'\n(I1\nttRp206\nsS'religious-groups-in-schools'\np207\ng33\n(S'Variable_Type'\n(I1\nttRp208\nsS'mx-missile'\np209\ng33\n(S'Variable_Type'\n(I1\nttRp210\nsS'anti-satellite-test-ban'\np211\ng33\n(S'Variable_Type'\n(I1\nttRp212\nsS'water-project-cost-sharing'\np213\ng33\n(S'Variable_Type'\n(I1\nttRp214\nsS'party'\np215\ng33\n(S'Variable_Type'\n(I1\nttRp216\nsS'export-administration-act-south-africa'\np217\ng33\n(S'Variable_Type'\n(I1\nttRp218\nsS'adoption-of-the-budget-resolution'\np219\ng33\n(S'Variable_Type'\n(I1\nttRp220\nsS'physician-fee-freeze'\np221\ng33\n(S'Variable_Type'\n(I1\nttRp222\nssg23\n(dp223\nsg43\n(lp224\ng102\nasg29\nF1338144735.958652\nsba(iOWContexts\nContext\np225\n(dp226\ng43\n(lp227\nS'orderedDomain'\np228\nasg30\n(dp229\nS'sc'\np230\ng33\n(S'Variable_Type'\n(I2\nttRp231\nsS'lefr'\np232\ng33\n(S'Variable_Type'\n(I2\nttRp233\nsS'type'\np234\ng33\n(S'Variable_Type'\n(I1\nttRp235\nsS'name'\np236\ng33\n(S'Variable_Type'\n(I1\nttRp237\nsS'zcr'\np238\ng33\n(S'Variable_Type'\n(I2\nttRp239\nssg23\n(dp240\nsg25\n(dp241\nS'targetClass'\np242\n(I4\nI-2\ntp243\nssg29\nF1337967068.953897\nsba(iOWContexts\nContext\np244\n(dp245\ng43\n(lp246\nS'orderedDomain'\np247\nasg30\n(dp248\nS'sc'\np249\ng33\n(S'Variable_Type'\n(I2\nttRp250\nsS'lefr'\np251\ng33\n(S'Variable_Type'\n(I2\nttRp252\nsS'name'\np253\ng33\n(S'Variable_Type'\n(I1\nttRp254\nsS'zcr'\np255\ng33\n(S'Variable_Type'\n(I2\nttRp256\nsS'tipo'\np257\ng33\n(S'Variable_Type'\n(I1\nttRp258\nssg23\n(dp259\nsg25\n(dp260\nS'targetClass'\np261\n(I1\nI-2\ntp262\nssg29\nF1337859102.3203239\nsba(iOWContexts\nContext\np263\n(dp264\ng25\n(dp265\nS'targetClass'\np266\n(I1\nI-2\ntp267\nssg30\n(dp268\nS'sc'\np269\ng33\n(S'Variable_Type'\n(I2\nttRp270\nsS'lefr'\np271\ng33\n(S'Variable_Type'\n(I2\nttRp272\nsS'name'\np273\ng33\n(S'Variable_Type'\n(I1\nttRp274\nsS'zcr'\np275\ng33\n(S'Variable_Type'\n(I2\nttRp276\nsS'tipo'\np277\ng33\n(S'Variable_Type'\n(I1\nttRp278\nssg23\n(dp279\nsg43\n(lp280\nS'orderedDomain'\np281\nasg29\nF1337859102.3203239\nsba(iOWContexts\nContext\np282\n(dp283\ng25\n(dp284\nS'targetClass'\np285\n(I1\nI-2\ntp286\nssg30\n(dp287\nS'sc'\np288\ng33\n(S'Variable_Type'\n(I2\nttRp289\nsS'lefr'\np290\ng33\n(S'Variable_Type'\n(I2\nttRp291\nsS'tipo'\np292\ng33\n(S'Variable_Type'\n(I1\nttRp293\nsS'zcr'\np294\ng33\n(S'Variable_Type'\n(I2\nttRp295\nssg23\n(dp296\nsg43\n(lp297\ng247\nasg29\nF1337792270.294117\nsba(iOWContexts\nContext\np298\n(dp299\ng43\n(lp300\ng281\nasg30\n(dp301\nS'sc'\np302\ng33\n(S'Variable_Type'\n(I2\nttRp303\nsS'lefr'\np304\ng33\n(S'Variable_Type'\n(I2\nttRp305\nsS'zcr'\np306\ng33\n(S'Variable_Type'\n(I2\nttRp307\nsS'tipo'\np308\ng33\n(S'Variable_Type'\n(I1\nttRp309\nssg23\n(dp310\nsg25\n(dp311\nS'targetClass'\np312\n(I1\nI-2\ntp313\nssg29\nF1337792270.294117\nsba(iOWContexts\nContext\np314\n(dp315\ng43\n(lp316\nS'orderedDomain'\np317\nasg30\n(dp318\nS'sc'\np319\ng33\n(S'Variable_Type'\n(I1\nttRp320\nsS'lefr'\np321\ng33\n(S'Variable_Type'\n(I1\nttRp322\nsS'zcr'\np323\ng33\n(S'Variable_Type'\n(I1\nttRp324\nsS'tipo'\np325\ng33\n(S'Variable_Type'\n(I1\nttRp326\nssg23\n(dp327\nsg25\n(dp328\nS'targetClass'\np329\n(I1\nI-2\ntp330\nssg29\nF1337503078.59233\nsba(iOWContexts\nContext\np331\n(dp332\ng25\n(dp333\nS'targetClass'\np334\n(I1\nI-2\ntp335\nssg30\n(dp336\nS'sc'\np337\ng33\n(S'Variable_Type'\n(I1\nttRp338\nsS'lefr'\np339\ng33\n(S'Variable_Type'\n(I1\nttRp340\nsS'tipo'\np341\ng33\n(S'Variable_Type'\n(I1\nttRp342\nsS'zcr'\np343\ng33\n(S'Variable_Type'\n(I1\nttRp344\nssg23\n(dp345\nsg43\n(lp346\nS'orderedDomain'\np347\nasg29\nF1337503078.59233\nsba(iOWContexts\nContext\np348\n(dp349\ng25\n(dp350\nS'targetClass'\np351\n(I0\nI-2\ntp352\nssg30\n(dp353\nS'campione'\np354\ng33\n(S'Variable_Type'\n(I1\nttRp355\nsS'sc'\np356\ng33\n(S'Variable_Type'\n(I1\nttRp357\nsS'tipo'\np358\ng33\n(S'Variable_Type'\n(I1\nttRp359\nsS'zcr'\np360\ng33\n(S'Variable_Type'\n(I1\nttRp361\nsS'lefr'\np362\ng33\n(S'Variable_Type'\n(I1\nttRp363\nssg23\n(dp364\nsg43\n(lp365\nS'orderedDomain'\np366\nasg29\nF1337288919.9637411\nsba(iOWContexts\nContext\np367\n(dp368\ng43\n(lp369\nS'orderedDomain'\np370\nasg30\n(dp371\nS'campione'\np372\ng33\n(S'Variable_Type'\n(I1\nttRp373\nsS'sc'\np374\ng33\n(S'Variable_Type'\n(I1\nttRp375\nsS'zcr'\np376\ng33\n(S'Variable_Type'\n(I1\nttRp377\nsS'tipo'\np378\ng33\n(S'Variable_Type'\n(I1\nttRp379\nsS'lefr'\np380\ng33\n(S'Variable_Type'\n(I1\nttRp381\nssg23\n(dp382\nsg25\n(dp383\nS'targetClass'\np384\n(I0\nI-2\ntp385\nssg29\nF1337288919.9637411\nsba(iOWContexts\nContext\np386\n(dp387\ng43\n(lp388\nS'orderedDomain'\np389\nasg30\n(dp390\nS'mode'\np391\ng33\n(S'Variable_Type'\n(I6\nttRp392\nssg23\n(dp393\nsg25\n(dp394\nS'targetClass'\np395\n(I0\nI-2\ntp396\nssg29\nF1336635973.833261\nsba(iOWContexts\nContext\np397\n(dp398\ng25\n(dp399\nS'targetClass'\np400\n(I0\nI-2\ntp401\nssg30\n(dp402\nS'mode'\np403\ng33\n(S'Variable_Type'\n(I6\nttRp404\nssg23\n(dp405\nsg43\n(lp406\nS'orderedDomain'\np407\nasg29\nF1336635973.833261\nsba(iOWContexts\nContext\np408\n(dp409\ng43\n(lp410\nS'orderedDomain'\np411\nasg30\n(dp412\nS'mode'\np413\ng33\n(S'Variable_Type'\n(I6\nttRp414\nssg23\n(dp415\nsg25\n(dp416\ng395\n(I0\nI-2\ntp417\nssg29\nF1336635780.47225\nsba(iOWContexts\nContext\np418\n(dp419\ng25\n(dp420\ng400\n(I0\nI-2\ntp421\nssg30\n(dp422\nS'mode'\np423\ng33\n(S'Variable_Type'\n(I6\nttRp424\nssg23\n(dp425\nsg43\n(lp426\nS'orderedDomain'\np427\nasg29\nF1336635780.47225\nsbasS'savedWidgetGeometry'\np428\nS'\\x01\\xd9\\xd0\\xcb\\x00\\x01\\x00\\x00\\x00\\x00\\x00\\x00\\x00\\x00\\x00\\x00\\x00\\x00\\x03\\x05\\x00\\x00\\x02\\x8d\\x00\\x00\\x00\\x00\\x00\\x00\\x00\\x00\\x00\\x00\\x03\\x05\\x00\\x00\\x02\\x8d\\x00\\x00\\x00\\x00\\x00\\x00'\np429\nsS'nFolds'\np430\nI10\nsS'applyOnAnyChange'\np431\nI01\ns."
p5
sS'Naive Bayes'
p6
S"(dp1\nS'adjustThreshold'\np2\nI0\nsS'name'\np3\nS'Naive Bayes'\np4\nsS'probEstimation'\np5\nI0\nsS'm_estimator.m'\np6\nF2\nsS'widgetHeight'\np7\nI654\nsS'condProbEstimation'\np8\nI0\nsS'widgetYPosition'\np9\nI30\nsS'savedWidgetGeometry'\np10\nS'\\x01\\xd9\\xd0\\xcb\\x00\\x01\\x00\\x00\\x00\\x00\\x00\\x00\\x00\\x00\\x00\\x1e\\x00\\x00\\x03\\xf5\\x00\\x00\\x02\\xab\\x00\\x00\\x00\\x00\\x00\\x00\\x00\\x1e\\x00\\x00\\x03\\xf5\\x00\\x00\\x02\\xab\\x00\\x00\\x00\\x00\\x00\\x00'\np11\nsS'widgetShown'\np12\nI0\nsS'windowProportion'\np13\nF0.5\nsS'widgetWidth'\np14\nI1014\nsS'widgetXPosition'\np15\nI0\ns."
p7
sS'Data Table'
p8
S"(dp1\nS'autoCommit'\np2\nI00\nsS'widgetYPosition'\np3\nI0\nsS'showMeta'\np4\nI1\nsS'distColorRgb'\np5\n(I220\nI220\nI220\nI255\ntp6\nsS'widgetHeight'\np7\nI654\nsS'widgetXPosition'\np8\nI0\nsS'showAttributeLabels'\np9\nI1\nsS'showDistributions'\np10\nI1\nsS'widgetShown'\np11\nI0\nsS'savedWidgetGeometry'\np12\nS'\\x01\\xd9\\xd0\\xcb\\x00\\x01\\x00\\x00\\x00\\x00\\x00\\x00\\x00\\x00\\x00\\x00\\x00\\x00\\x03\\xf5\\x00\\x00\\x02\\x8d\\x00\\x00\\x00\\x00\\x00\\x00\\x00\\x00\\x00\\x00\\x03\\xf5\\x00\\x00\\x02\\x8d\\x00\\x00\\x00\\x00\\x00\\x00'\np13\nsS'widgetWidth'\np14\nI1014\nsS'selectedSchemaIndex'\np15\nI0\nsS'colorByClass'\np16\nI01\ns."
p9
sS'Interactive Tree Builder'
p10
S"(dp1\nS'localContextsVersion'\np2\n(I100\nI0\ntp3\nsS'expslider'\np4\nI5\nsS'dist'\np5\nI1\nsS'sliderValue'\np6\nI5\nsS'adist'\np7\nI1\nsS'widgetXPosition'\np8\nI0\nsS'widgetYPosition'\np9\nI0\nsS'pmaj'\np10\nI1\nsS'widgetShown'\np11\nI0\nsS'savedWidgetGeometry'\np12\nS'\\x01\\xd9\\xd0\\xcb\\x00\\x01\\x00\\x00\\x00\\x00\\x00\\x00\\x00\\x00\\x00\\x00\\x00\\x00\\x03\\x05\\x00\\x00\\x02\\x8d\\x00\\x00\\x00\\x00\\x00\\x00\\x00\\x00\\x00\\x00\\x03\\x05\\x00\\x00\\x02\\x8d\\x00\\x00\\x00\\x00\\x00\\x00'\np13\nsS'widgetWidth'\np14\nI774\nsS'ptarget'\np15\nI1\nsS'widgetHeight'\np16\nI654\nsS'inst'\np17\nI1\nsS'maj'\np18\nI1\nsS'localContexts'\np19\n(lp20\n(iOWContexts\nContext\np21\n(dp22\nS'metas'\np23\n(dp24\nsS'values'\np25\n(dp26\nS'targetClass'\np27\n(I0\nI-2\ntp28\nssS'time'\np29\nF1339073019.569464\nsS'attributes'\np30\n(dp31\nS'sc'\np32\ncorange\n__pickleLoaderNamedConstants\np33\n(S'Variable_Type'\n(I2\nttRp34\nsS'lefr'\np35\ng33\n(S'Variable_Type'\n(I2\nttRp36\nsS'type'\np37\ncorange\nStringList\np38\n(tRp39\nS'auto'\naS'lezione'\naS'parco'\naS'ristorante'\naS'strada'\naS'treno'\naS'tv'\na(dbsS'name'\np40\ng33\n(S'Variable_Type'\n(I1\nttRp41\nsS'zcr'\np42\ng33\n(S'Variable_Type'\n(I2\nttRp43\nssS'noCopy'\np44\n(lp45\nS'orderedDomain'\np46\nasba(iOWContexts\nContext\np47\n(dp48\ng44\n(lp49\nS'orderedDomain'\np50\nasg30\n(dp51\nS'sc'\np52\ng33\n(S'Variable_Type'\n(I2\nttRp53\nsS'zcf'\np54\ng33\n(S'Variable_Type'\n(I2\nttRp55\nsS'type'\np56\ng38\n(tRp57\nS'auto'\naS'lezione'\naS'parco'\naS'ristorante'\naS'strada'\naS'treno'\naS'tv'\na(dbsS'name'\np58\ng33\n(S'Variable_Type'\n(I1\nttRp59\nsS'miao'\np60\ng33\n(S'Variable_Type'\n(I2\nttRp61\nssg23\n(dp62\nsg25\n(dp63\nS'targetClass'\np64\n(I0\nI-2\ntp65\nssg29\nF1338202169.862087\nsba(iOWContexts\nContext\np66\n(dp67\ng25\n(dp68\nS'targetClass'\np69\n(I0\nI-2\ntp70\nssg30\n(dp71\nS'sc'\np72\ng33\n(S'Variable_Type'\n(I2\nttRp73\nsS'zcf'\np74\ng33\n(S'Variable_Type'\n(I2\nttRp75\nsS'type'\np76\ng38\n(tRp77\nS'auto'\naS'lezione'\naS'parco'\naS'ristorante'\naS'strada'\naS'treno'\naS'tv'\na(dbsS'name'\np78\ng33\n(S'Variable_Type'\n(I1\nttRp79\nsS'miao'\np80\ng33\n(S'Variable_Type'\n(I2\nttRp81\nssg23\n(dp82\nsg44\n(lp83\nS'orderedDomain'\np84\nasg29\nF1338195487.241981\nsba(iOWContexts\nContext\np85\n(dp86\ng44\n(lp87\nS'orderedDomain'\np88\nasg30\n(dp89\nS'sc'\np90\ng33\n(S'Variable_Type'\n(I2\nttRp91\nsS'zcf'\np92\ng33\n(S'Variable_Type'\n(I2\nttRp93\nsS'type'\np94\ng38\n(tRp95\nS'auto'\naS'parco'\naS'strada'\naS'treno'\naS'tv'\na(dbsS'name'\np96\ng33\n(S'Variable_Type'\n(I1\nttRp97\nsS'miao'\np98\ng33\n(S'Variable_Type'\n(I2\nttRp99\nssg23\n(dp100\nsg25\n(dp101\nS'targetClass'\np102\n(I0\nI-2\ntp103\nssg29\nF1338144874.5773909\nsba(iOWContexts\nContext\np104\n(dp105\ng25\n(dp106\nS'targetClass'\np107\n(I0\nI-2\ntp108\nssg30\n(dp109\nS'sc'\np110\ng33\n(S'Variable_Type'\n(I2\nttRp111\nsS'zcf'\np112\ng33\n(S'Variable_Type'\n(I2\nttRp113\nsS'type'\np114\ng38\n(tRp115\nS'auto'\naS'parco'\naS'strada'\naS'treno'\naS'tv'\na(dbsS'name'\np116\ng33\n(S'Variable_Type'\n(I1\nttRp117\nsS'miao'\np118\ng33\n(S'Variable_Type'\n(I2\nttRp119\nssg23\n(dp120\nsg44\n(lp121\nS'orderedDomain'\np122\nasg29\nF1338144874.5773909\nsba(iOWContexts\nContext\np123\n(dp124\ng44\n(lp125\ng88\nasg30\n(dp126\nS'handicapped-infants'\np127\ng33\n(S'Variable_Type'\n(I1\nttRp128\nsS'water-project-cost-sharing'\np129\ng33\n(S'Variable_Type'\n(I1\nttRp130\nsS'education-spending'\np131\ng33\n(S'Variable_Type'\n(I1\nttRp132\nsS'adoption-of-the-budget-resolution'\np133\ng33\n(S'Variable_Type'\n(I1\nttRp134\nsS'immigration'\np135\ng33\n(S'Variable_Type'\n(I1\nttRp136\nsS'crime'\np137\ng33\n(S'Variable_Type'\n(I1\nttRp138\nsS'el-salvador-aid'\np139\ng33\n(S'Variable_Type'\n(I1\nttRp140\nsS'superfund-right-to-sue'\np141\ng33\n(S'Variable_Type'\n(I1\nttRp142\nsS'synfuels-corporation-cutback'\np143\ng33\n(S'Variable_Type'\n(I1\nttRp144\nsS'religious-groups-in-schools'\np145\ng33\n(S'Variable_Type'\n(I1\nttRp146\nsS'mx-missile'\np147\ng33\n(S'Variable_Type'\n(I1\nttRp148\nsS'anti-satellite-test-ban'\np149\ng33\n(S'Variable_Type'\n(I1\nttRp150\nsS'duty-free-exports'\np151\ng33\n(S'Variable_Type'\n(I1\nttRp152\nsS'party'\np153\ng38\n(tRp154\nS'republican'\naS'democrat'\na(dbsS'export-administration-act-south-africa'\np155\ng33\n(S'Variable_Type'\n(I1\nttRp156\nsS'aid-to-nicaraguan-contras'\np157\ng33\n(S'Variable_Type'\n(I1\nttRp158\nsS'physician-fee-freeze'\np159\ng33\n(S'Variable_Type'\n(I1\nttRp160\nssg23\n(dp161\nsg25\n(dp162\ng102\n(I0\nI-2\ntp163\nssg29\nF1338144736.2996321\nsba(iOWContexts\nContext\np164\n(dp165\ng25\n(dp166\ng107\n(I0\nI-2\ntp167\nssg30\n(dp168\nS'handicapped-infants'\np169\ng33\n(S'Variable_Type'\n(I1\nttRp170\nsS'superfund-right-to-sue'\np171\ng33\n(S'Variable_Type'\n(I1\nttRp172\nsS'duty-free-exports'\np173\ng33\n(S'Variable_Type'\n(I1\nttRp174\nsS'aid-to-nicaraguan-contras'\np175\ng33\n(S'Variable_Type'\n(I1\nttRp176\nsS'immigration'\np177\ng33\n(S'Variable_Type'\n(I1\nttRp178\nsS'crime'\np179\ng33\n(S'Variable_Type'\n(I1\nttRp180\nsS'el-salvador-aid'\np181\ng33\n(S'Variable_Type'\n(I1\nttRp182\nsS'education-spending'\np183\ng33\n(S'Variable_Type'\n(I1\nttRp184\nsS'synfuels-corporation-cutback'\np185\ng33\n(S'Variable_Type'\n(I1\nttRp186\nsS'religious-groups-in-schools'\np187\ng33\n(S'Variable_Type'\n(I1\nttRp188\nsS'mx-missile'\np189\ng33\n(S'Variable_Type'\n(I1\nttRp190\nsS'anti-satellite-test-ban'\np191\ng33\n(S'Variable_Type'\n(I1\nttRp192\nsS'water-project-cost-sharing'\np193\ng33\n(S'Variable_Type'\n(I1\nttRp194\nsS'party'\np195\ng38\n(tRp196\nS'republican'\naS'democrat'\na(dbsS'export-administration-act-south-africa'\np197\ng33\n(S'Variable_Type'\n(I1\nttRp198\nsS'adoption-of-the-budget-resolution'\np199\ng33\n(S'Variable_Type'\n(I1\nttRp200\nsS'physician-fee-freeze'\np201\ng33\n(S'Variable_Type'\n(I1\nttRp202\nssg23\n(dp203\nsg44\n(lp204\ng122\nasg29\nF1338144736.2996321\nsba(iOWContexts\nContext\np205\n(dp206\ng25\n(dp207\nS'targetClass'\np208\n(I0\nI-2\ntp209\nssg30\n(dp210\nS'sc'\np211\ng33\n(S'Variable_Type'\n(I2\nttRp212\nsS'lefr'\np213\ng33\n(S'Variable_Type'\n(I2\nttRp214\nsS'type'\np215\ng38\n(tRp216\nS'auto'\naS'parco'\naS'strada'\naS'treno'\naS'tv'\na(dbsS'name'\np217\ng33\n(S'Variable_Type'\n(I1\nttRp218\nsS'zcr'\np219\ng33\n(S'Variable_Type'\n(I2\nttRp220\nssg23\n(dp221\nsg44\n(lp222\nS'orderedDomain'\np223\nasg29\nF1337967120.108103\nsba(iOWContexts\nContext\np224\n(dp225\ng44\n(lp226\nS'orderedDomain'\np227\nasg30\n(dp228\nS'sc'\np229\ng33\n(S'Variable_Type'\n(I2\nttRp230\nsS'lefr'\np231\ng33\n(S'Variable_Type'\n(I2\nttRp232\nsS'type'\np233\ng38\n(tRp234\nS'auto'\naS'parco'\naS'strada'\naS'treno'\naS'tv'\na(dbsS'name'\np235\ng33\n(S'Variable_Type'\n(I1\nttRp236\nsS'zcr'\np237\ng33\n(S'Variable_Type'\n(I2\nttRp238\nssg23\n(dp239\nsg25\n(dp240\nS'targetClass'\np241\n(I0\nI-2\ntp242\nssg29\nF1337967120.108103\nsba(iOWContexts\nContext\np243\n(dp244\ng25\n(dp245\nS'targetClass'\np246\n(I0\nI-2\ntp247\nssg30\n(dp248\nS'sc'\np249\ng33\n(S'Variable_Type'\n(I2\nttRp250\nsS'lefr'\np251\ng33\n(S'Variable_Type'\n(I2\nttRp252\nsS'type'\np253\ng38\n(tRp254\nS'auto'\naS'centrocommerciale'\naS'parco'\naS'ristorante'\naS'strada'\naS'treno'\naS'tv'\na(dbsS'name'\np255\ng33\n(S'Variable_Type'\n(I1\nttRp256\nsS'zcr'\np257\ng33\n(S'Variable_Type'\n(I2\nttRp258\nssg23\n(dp259\nsg44\n(lp260\nS'orderedDomain'\np261\nasg29\nF1337963624.6474349\nsba(iOWContexts\nContext\np262\n(dp263\ng44\n(lp264\nS'orderedDomain'\np265\nasg30\n(dp266\nS'sc'\np267\ng33\n(S'Variable_Type'\n(I2\nttRp268\nsS'lefr'\np269\ng33\n(S'Variable_Type'\n(I2\nttRp270\nsS'type'\np271\ng38\n(tRp272\nS'auto'\naS'centrocommerciale'\naS'parco'\naS'ristorante'\naS'strada'\naS'treno'\naS'tv'\na(dbsS'name'\np273\ng33\n(S'Variable_Type'\n(I1\nttRp274\nsS'zcr'\np275\ng33\n(S'Variable_Type'\n(I2\nttRp276\nssg23\n(dp277\nsg25\n(dp278\nS'targetClass'\np279\n(I0\nI-2\ntp280\nssg29\nF1337963624.6474349\nsba(iOWContexts\nContext\np281\n(dp282\ng25\n(dp283\ng246\n(I0\nI-2\ntp284\nssg30\n(dp285\nS'sc'\np286\ng33\n(S'Variable_Type'\n(I2\nttRp287\nsS'lefr'\np288\ng33\n(S'Variable_Type'\n(I2\nttRp289\nsS'tipo'\np290\ng38\n(tRp291\nS'auto'\naS'centrocommerciale'\naS'parco'\naS'ristorante'\na(dbsS'zcr'\np292\ng33\n(S'Variable_Type'\n(I2\nttRp293\nssg23\n(dp294\nsg44\n(lp295\nS'orderedDomain'\np296\nasg29\nF1337963609.971065\nsba(iOWContexts\nContext\np297\n(dp298\ng44\n(lp299\nS'orderedDomain'\np300\nasg30\n(dp301\nS'sc'\np302\ng33\n(S'Variable_Type'\n(I2\nttRp303\nsS'lefr'\np304\ng33\n(S'Variable_Type'\n(I2\nttRp305\nsS'zcr'\np306\ng33\n(S'Variable_Type'\n(I2\nttRp307\nsS'tipo'\np308\ng38\n(tRp309\nS'auto'\naS'centrocommerciale'\naS'parco'\naS'ristorante'\na(dbssg23\n(dp310\nsg25\n(dp311\ng279\n(I0\nI-2\ntp312\nssg29\nF1337963609.971065\nsba(iOWContexts\nContext\np313\n(dp314\ng44\n(lp315\nS'orderedDomain'\np316\nasg30\n(dp317\nS'sc'\np318\ng33\n(S'Variable_Type'\n(I2\nttRp319\nsS'lefr'\np320\ng33\n(S'Variable_Type'\n(I2\nttRp321\nsS'name'\np322\ng33\n(S'Variable_Type'\n(I1\nttRp323\nsS'zcr'\np324\ng33\n(S'Variable_Type'\n(I2\nttRp325\nsS'tipo'\np326\ng38\n(tRp327\nS'auto'\naS'centrocommerciale'\naS'parco'\naS'ristorante'\na(dbssg23\n(dp328\nsg25\n(dp329\nS'targetClass'\np330\n(I0\nI-2\ntp331\nssg29\nF1337859161.3803401\nsba(iOWContexts\nContext\np332\n(dp333\ng25\n(dp334\nS'targetClass'\np335\n(I0\nI-2\ntp336\nssg30\n(dp337\nS'sc'\np338\ng33\n(S'Variable_Type'\n(I2\nttRp339\nsS'lefr'\np340\ng33\n(S'Variable_Type'\n(I2\nttRp341\nsS'name'\np342\ng33\n(S'Variable_Type'\n(I1\nttRp343\nsS'zcr'\np344\ng33\n(S'Variable_Type'\n(I2\nttRp345\nsS'tipo'\np346\ng38\n(tRp347\nS'auto'\naS'centrocommerciale'\naS'parco'\naS'ristorante'\na(dbssg23\n(dp348\nsg44\n(lp349\nS'orderedDomain'\np350\nasg29\nF1337859161.3803401\nsba(iOWContexts\nContext\np351\n(dp352\ng44\n(lp353\nS'orderedDomain'\np354\nasg30\n(dp355\nS'sc'\np356\ng33\n(S'Variable_Type'\n(I2\nttRp357\nsS'lefr'\np358\ng33\n(S'Variable_Type'\n(I2\nttRp359\nsS'name'\np360\ng33\n(S'Variable_Type'\n(I1\nttRp361\nsS'zcr'\np362\ng33\n(S'Variable_Type'\n(I2\nttRp363\nsS'tipo'\np364\ng38\n(tRp365\nS'auto'\naS'ristorante'\naS'centrocommerciale'\naS'parco'\na(dbssg23\n(dp366\nsg25\n(dp367\nS'targetClass'\np368\n(I0\nI-2\ntp369\nssg29\nF1337510857.230417\nsba(iOWContexts\nContext\np370\n(dp371\ng25\n(dp372\nS'targetClass'\np373\n(I0\nI-2\ntp374\nssg30\n(dp375\nS'sc'\np376\ng33\n(S'Variable_Type'\n(I2\nttRp377\nsS'lefr'\np378\ng33\n(S'Variable_Type'\n(I2\nttRp379\nsS'name'\np380\ng33\n(S'Variable_Type'\n(I1\nttRp381\nsS'zcr'\np382\ng33\n(S'Variable_Type'\n(I2\nttRp383\nsS'tipo'\np384\ng38\n(tRp385\nS'auto'\naS'ristorante'\naS'centrocommerciale'\naS'parco'\na(dbssg23\n(dp386\nsg44\n(lp387\nS'orderedDomain'\np388\nasg29\nF1337510857.230417\nsba(iOWContexts\nContext\np389\n(dp390\ng44\n(lp391\ng354\nasg30\n(dp392\nS'sc'\np393\ng33\n(S'Variable_Type'\n(I2\nttRp394\nsS'lefr'\np395\ng33\n(S'Variable_Type'\n(I2\nttRp396\nsS'zcr'\np397\ng33\n(S'Variable_Type'\n(I2\nttRp398\nsS'tipo'\np399\ng365\nssg23\n(dp400\nsg25\n(dp401\ng368\n(I0\nI-2\ntp402\nssg29\nF1337503985.9999499\nsba(iOWContexts\nContext\np403\n(dp404\ng25\n(dp405\ng373\n(I0\nI-2\ntp406\nssg30\n(dp407\nS'sc'\np408\ng33\n(S'Variable_Type'\n(I2\nttRp409\nsS'lefr'\np410\ng33\n(S'Variable_Type'\n(I2\nttRp411\nsS'tipo'\np412\ng385\nsS'zcr'\np413\ng33\n(S'Variable_Type'\n(I2\nttRp414\nssg23\n(dp415\nsg44\n(lp416\ng388\nasg29\nF1337503985.9999499\nsba(iOWContexts\nContext\np417\n(dp418\ng44\n(lp419\nS'orderedDomain'\np420\nasg30\n(dp421\nS'sc'\np422\ng33\n(S'Variable_Type'\n(I1\nttRp423\nsS'lefr'\np424\ng33\n(S'Variable_Type'\n(I1\nttRp425\nsS'zcr'\np426\ng33\n(S'Variable_Type'\n(I1\nttRp427\nsS'tipo'\np428\ng365\nssg23\n(dp429\nsg25\n(dp430\ng368\n(I0\nI-2\ntp431\nssg29\nF1337503244.7712109\nsba(iOWContexts\nContext\np432\n(dp433\ng25\n(dp434\ng373\n(I0\nI-2\ntp435\nssg30\n(dp436\nS'sc'\np437\ng33\n(S'Variable_Type'\n(I1\nttRp438\nsS'lefr'\np439\ng33\n(S'Variable_Type'\n(I1\nttRp440\nsS'tipo'\np441\ng385\nsS'zcr'\np442\ng33\n(S'Variable_Type'\n(I1\nttRp443\nssg23\n(dp444\nsg44\n(lp445\nS'orderedDomain'\np446\nasg29\nF1337503244.7712109\nsba(iOWContexts\nContext\np447\n(dp448\ng25\n(dp449\nS'targetClass'\np450\n(I0\nI-2\ntp451\nssg30\n(dp452\nS'sc'\np453\ng33\n(S'Variable_Type'\n(I1\nttRp454\nsS'lefr'\np455\ng33\n(S'Variable_Type'\n(I1\nttRp456\nsS'tipo'\np457\ng38\n(tRp458\nS'auto'\naS'centrocommerciale'\naS'ristorante'\naS'parco'\na(dbsS'zcr'\np459\ng33\n(S'Variable_Type'\n(I1\nttRp460\nssg23\n(dp461\nsg44\n(lp462\ng420\nasg29\nF1337289082.0403669\nsba(iOWContexts\nContext\np463\n(dp464\ng44\n(lp465\ng446\nasg30\n(dp466\nS'sc'\np467\ng33\n(S'Variable_Type'\n(I1\nttRp468\nsS'lefr'\np469\ng33\n(S'Variable_Type'\n(I1\nttRp470\nsS'zcr'\np471\ng33\n(S'Variable_Type'\n(I1\nttRp472\nsS'tipo'\np473\ng38\n(tRp474\nS'auto'\naS'centrocommerciale'\naS'ristorante'\naS'parco'\na(dbssg23\n(dp475\nsg25\n(dp476\nS'targetClass'\np477\n(I0\nI-2\ntp478\nssg29\nF1337289082.0403669\nsba(iOWContexts\nContext\np479\n(dp480\ng44\n(lp481\nS'orderedDomain'\np482\nasg30\n(dp483\nS'campione'\np484\ng33\n(S'Variable_Type'\n(I1\nttRp485\nsS'sc'\np486\ng33\n(S'Variable_Type'\n(I1\nttRp487\nsS'zcr'\np488\ng33\n(S'Variable_Type'\n(I1\nttRp489\nsS'tipo'\np490\ng38\n(tRp491\nS'auto'\naS'centrocommerciale'\naS'parco'\naS'ristorante'\na(dbsS'lefr'\np492\ng33\n(S'Variable_Type'\n(I1\nttRp493\nssg23\n(dp494\nsg25\n(dp495\nS'targetClass'\np496\n(I0\nI-2\ntp497\nssg29\nF1337254371.204824\nsba(iOWContexts\nContext\np498\n(dp499\ng25\n(dp500\nS'targetClass'\np501\n(I0\nI-2\ntp502\nssg30\n(dp503\nS'campione'\np504\ng33\n(S'Variable_Type'\n(I1\nttRp505\nsS'sc'\np506\ng33\n(S'Variable_Type'\n(I1\nttRp507\nsS'tipo'\np508\ng38\n(tRp509\nS'auto'\naS'centrocommerciale'\naS'parco'\naS'ristorante'\na(dbsS'zcr'\np510\ng33\n(S'Variable_Type'\n(I1\nttRp511\nsS'lefr'\np512\ng33\n(S'Variable_Type'\n(I1\nttRp513\nssg23\n(dp514\nsg44\n(lp515\nS'orderedDomain'\np516\nasg29\nF1337254371.204824\nsbas."
p11
sS'Confusion Matrix'
p12
S"(dp1\nS'widgetHeight'\np2\nNsS'widgetXPosition'\np3\nNsS'widgetYPosition'\np4\nNsS'widgetShown'\np5\nNsS'savedWidgetGeometry'\np6\nNsS'widgetWidth'\np7\nNs."
p13
sS'File'
p14
S"(dp1\nS'widgetHeight'\np2\nI654\nsS'widgetXPosition'\np3\nI0\nsS'widgetYPosition'\np4\nI0\nsS'savedWidgetGeometry'\np5\nS'\\x01\\xd9\\xd0\\xcb\\x00\\x01\\x00\\x00\\x00\\x00\\x00\\x00\\x00\\x00\\x00\\x00\\x00\\x00\\x03\\x05\\x00\\x00\\x02\\x8d\\x00\\x00\\x00\\x00\\x00\\x00\\x00\\x00\\x00\\x00\\x03\\x05\\x00\\x00\\x02\\x8d\\x00\\x00\\x00\\x00\\x00\\x00'\np6\nsS'widgetShown'\np7\nI0\nsS'showAdvanced'\np8\nI0\nsS'createNewOn'\np9\nI1\nsS'widgetWidth'\np10\nI774\nsS'localContextsVersion'\np11\n(I100\nI0\ntp12\nsS'localContexts'\np13\n(lp14\n(iOWContexts\nContext\np15\n(dp16\nS'symbolDC'\np17\nS''\nsS'symbolDK'\np18\nS''\nsS'filename'\np19\nS'/home/nicola/Desktop/sound-unimore/source/dataset.tab'\np20\nsS'time'\np21\nF1339073016.0924931\nsba(iOWContexts\nContext\np22\n(dp23\ng17\nS''\nsg18\nS''\nsg19\nS''\nsg21\nF1338205027.16892\nsba(iOWContexts\nContext\np24\n(dp25\ng18\nS''\nsg17\nS''\nsg21\nF1338204944.3277199\nsg19\nS''\nsba(iOWContexts\nContext\np26\n(dp27\ng17\nS''\nsg18\nS''\nsg19\nS''\nsg21\nF1338194433.1802261\nsba(iOWContexts\nContext\np28\n(dp29\ng18\nS''\nsg17\nS''\nsg21\nF1338194433.1802261\nsg19\nS''\nsba(iOWContexts\nContext\np30\n(dp31\ng17\nS''\nsg18\nS''\nsg19\nS''\nsg21\nF1338144778.593581\nsba(iOWContexts\nContext\np32\n(dp33\ng18\nS''\nsg17\nS''\nsg21\nF1338144778.593581\nsg19\nS''\nsba(iOWContexts\nContext\np34\n(dp35\ng17\nS''\nsg18\nS''\nsg19\nS'/usr/share/doc/python-orange/datasets/voting.tab'\np36\nsg21\nF1338144735.7122331\nsba(iOWContexts\nContext\np37\n(dp38\ng18\nS''\nsg17\nS''\nsg21\nF1338144735.7122331\nsg19\nS'/usr/share/doc/python-orange/datasets/voting.tab'\np39\nsba(iOWContexts\nContext\np40\n(dp41\ng18\nS''\nsg17\nS''\nsg21\nF1337967068.7729509\nsg19\nS'/home/ciopper90/sound/source/dataset.tab'\np42\nsba(iOWContexts\nContext\np43\n(dp44\ng17\nS''\nsg18\nS''\nsg19\nS'/home/ciopper90/sound/source/dataset.tab'\np45\nsg21\nF1337967068.7729509\nsba(iOWContexts\nContext\np46\n(dp47\ng18\nS''\nsg17\nS''\nsg21\nF1337966412.5995309\nsg19\nS''\nsba(iOWContexts\nContext\np48\n(dp49\ng17\nS''\nsg18\nS''\nsg19\nS''\nsg21\nF1337966412.5995309\nsba(iOWContexts\nContext\np50\n(dp51\ng18\nS''\nsg17\nS''\nsg21\nF1337966392.2664671\nsg19\nS''\nsba(iOWContexts\nContext\np52\n(dp53\ng17\nS''\nsg18\nS''\nsg19\nS''\nsg21\nF1337966392.2664671\nsba(iOWContexts\nContext\np54\n(dp55\ng18\nS''\nsg17\nS''\nsg21\nF1337963609.9191821\nsg19\nS'/home/ciopper90/tesi/Source/audio.tab'\np56\nsba(iOWContexts\nContext\np57\n(dp58\ng17\nS''\nsg18\nS''\nsg19\nS'/home/ciopper90/tesi/Source/audio.tab'\np59\nsg21\nF1337963609.9191821\nsba(iOWContexts\nContext\np60\n(dp61\ng17\nS''\nsg18\nS''\nsg19\nS'/home/ciopper90/tesi/Source/audio.tab'\np62\nsg21\nF1337178911.487359\nsba(iOWContexts\nContext\np63\n(dp64\ng18\nS''\nsg17\nS''\nsg21\nF1337178911.487359\nsg19\nS'/home/ciopper90/tesi/Source/audio.tab'\np65\nsba(iOWContexts\nContext\np66\n(dp67\ng18\nS''\nsg17\nS''\nsg21\nF1336825731.085942\nsg19\ng62\nsba(iOWContexts\nContext\np68\n(dp69\ng17\nS''\nsg18\nS''\nsg19\nS'/home/ciopper90/tesi/Source/audio.tab'\np70\nsg21\nF1336825731.085942\nsba(iOWContexts\nContext\np71\n(dp72\ng17\nS''\nsg18\nS''\nsg19\ng65\nsg21\nF1336825731.085942\nsba(iOWContexts\nContext\np73\n(dp74\ng18\nS''\nsg17\nS''\nsg21\nF1336825731.085942\nsg19\nS'/home/ciopper90/tesi/Source/audio.tab'\np75\nsba(iOWContexts\nContext\np76\n(dp77\ng18\nS''\nsg17\nS''\nsg21\nF1336825721.949506\nsg19\nS'/home/ciopper90/tesi/Source/audio.tab'\np78\nsba(iOWContexts\nContext\np79\n(dp80\ng17\nS''\nsg18\nS''\nsg19\nS'/home/ciopper90/tesi/Source/audio.tab'\np81\nsg21\nF1336825721.949506\nsba(iOWContexts\nContext\np82\n(dp83\ng17\nS''\nsg18\nS''\nsg19\nS'/home/ciopper90/tesi/Source/audio.tab'\np84\nsg21\nF1336825721.949506\nsba(iOWContexts\nContext\np85\n(dp86\ng18\nS''\nsg17\nS''\nsg21\nF1336825721.949506\nsg19\nS'/home/ciopper90/tesi/Source/audio.tab'\np87\nsba(iOWContexts\nContext\np88\n(dp89\ng17\nS''\nsg18\nS''\nsg19\nS'/home/ciopper90/tesi/Source/audio.tab'\np90\nsg21\nF1336825721.7724559\nsba(iOWContexts\nContext\np91\n(dp92\ng18\nS''\nsg17\nS''\nsg21\nF1336825721.7724559\nsg19\nS'/home/ciopper90/tesi/Source/audio.tab'\np93\nsba(iOWContexts\nContext\np94\n(dp95\ng18\nS''\nsg17\nS''\nsg21\nF1336825721.7724559\nsg19\nS'/home/ciopper90/tesi/Source/audio.tab'\np96\nsba(iOWContexts\nContext\np97\n(dp98\ng17\nS''\nsg18\nS''\nsg19\nS'/home/ciopper90/tesi/Source/audio.tab'\np99\nsg21\nF1336825721.7724559\nsba(iOWContexts\nContext\np100\n(dp101\ng18\nS''\nsg17\nS''\nsg21\nF1336814997.170311\nsg19\nS''\nsba(iOWContexts\nContext\np102\n(dp103\ng18\nS''\nsg17\nS''\nsg21\nF1336814997.170311\nsg19\nS''\nsba(iOWContexts\nContext\np104\n(dp105\ng17\nS''\nsg18\nS''\nsg19\nS''\nsg21\nF1336814997.170311\nsba(iOWContexts\nContext\np106\n(dp107\ng17\nS''\nsg18\nS''\nsg19\nS''\nsg21\nF1336814997.170311\nsba(iOWContexts\nContext\np108\n(dp109\ng17\nS''\nsg18\nS''\nsg19\nS''\nsg21\nF1336814997.170311\nsba(iOWContexts\nContext\np110\n(dp111\ng17\nS''\nsg18\nS''\nsg19\nS''\nsg21\nF1336814997.170311\nsba(iOWContexts\nContext\np112\n(dp113\ng18\nS''\nsg17\nS''\nsg21\nF1336814997.170311\nsg19\nS''\nsba(iOWContexts\nContext\np114\n(dp115\ng18\nS''\nsg17\nS''\nsg21\nF1336814997.170311\nsg19\nS''\nsba(iOWContexts\nContext\np116\n(dp117\ng17\nS''\nsg18\nS''\nsg19\nS''\nsg21\nF1336814997.170311\nsba(iOWContexts\nContext\np118\n(dp119\ng17\nS''\nsg18\nS''\nsg19\nS''\nsg21\nF1336814997.170311\nsba(iOWContexts\nContext\np120\n(dp121\ng18\nS''\nsg17\nS''\nsg21\nF1336814997.170311\nsg19\nS''\nsba(iOWContexts\nContext\np122\n(dp123\ng18\nS''\nsg17\nS''\nsg21\nF1336814997.170311\nsg19\nS''\nsba(iOWContexts\nContext\np124\n(dp125\ng18\nS''\nsg17\nS''\nsg21\nF1336814997.170311\nsg19\nS''\nsba(iOWContexts\nContext\np126\n(dp127\ng18\nS''\nsg17\nS''\nsg21\nF1336814997.170311\nsg19\nS''\nsba(iOWContexts\nContext\np128\n(dp129\ng17\nS''\nsg18\nS''\nsg19\nS''\nsg21\nF1336814997.170311\nsba(iOWContexts\nContext\np130\n(dp131\ng17\nS''\nsg18\nS''\nsg19\nS''\nsg21\nF1336814997.170311\nsba(iOWContexts\nContext\np132\n(dp133\ng18\nS''\nsg17\nS''\nsg21\nF1336814988.61605\nsg19\nS'/home/ciopper90/test.tab'\np134\nsba(iOWContexts\nContext\np135\n(dp136\ng18\nS''\nsg17\nS''\nsg21\nF1336814988.61605\nsg19\nS'/home/ciopper90/test.tab'\np137\nsba(iOWContexts\nContext\np138\n(dp139\ng17\nS''\nsg18\nS''\nsg19\nS'/home/ciopper90/test.tab'\np140\nsg21\nF1336814988.61605\nsbasS'recentFiles'\np141\n(lp142\ng20\nas."
p15
sS'k Nearest Neighbours'
p16
S"(dp1\nS'normalize'\np2\nI1\nsS'widgetShown'\np3\nI0\nsS'name'\np4\nS'kNN'\np5\nsS'ranks'\np6\nI0\nsS'widgetHeight'\np7\nI654\nsS'k'\nI5\nsS'widgetYPosition'\np8\nI30\nsS'ignoreUnknowns'\np9\nI0\nsS'metrics'\np10\nI0\nsS'savedWidgetGeometry'\np11\nS'\\x01\\xd9\\xd0\\xcb\\x00\\x01\\x00\\x00\\x00\\x00\\x00\\x00\\x00\\x00\\x00\\x1e\\x00\\x00\\x03\\xf5\\x00\\x00\\x02\\xab\\x00\\x00\\x00\\x00\\x00\\x00\\x00\\x1e\\x00\\x00\\x03\\xf5\\x00\\x00\\x02\\xab\\x00\\x00\\x00\\x00\\x00\\x00'\np12\nsS'widgetWidth'\np13\nI1014\nsS'widgetXPosition'\np14\nI0\ns."
p17
sS'Classification Tree'
p18
S"(dp1\nS'subset'\np2\nI0\nsS'postMaj'\np3\nI1\nsS'widgetXPosition'\np4\nI0\nsS'widgetYPosition'\np5\nI30\nsS'postMPruning'\np6\nI1\nsS'relK'\np7\nI5\nsS'widgetWidth'\np8\nI1014\nsS'relM'\np9\nI100\nsS'preNodeInstP'\np10\nI5\nsS'preLeafInst'\np11\nI1\nsS'widgetHeight'\np12\nI654\nsS'limitDepth'\np13\nI00\nsS'savedWidgetGeometry'\np14\nS'\\x01\\xd9\\xd0\\xcb\\x00\\x01\\x00\\x00\\x00\\x00\\x00\\x00\\x00\\x00\\x00\\x1e\\x00\\x00\\x03\\xf5\\x00\\x00\\x02\\xab\\x00\\x00\\x00\\x00\\x00\\x00\\x00\\x1e\\x00\\x00\\x03\\xf5\\x00\\x00\\x02\\xab\\x00\\x00\\x00\\x00\\x00\\x00'\np15\nsS'estim'\np16\nI1\nsS'bin'\np17\nI0\nsS'widgetShown'\np18\nI0\nsS'postM'\np19\nF2\nsS'maxDepth'\np20\nI100\nsS'preLeafInstP'\np21\nI2\nsS'preNodeInst'\np22\nI0\nsS'preNodeMaj'\np23\nI0\nsS'preNodeMajP'\np24\nI95\nsS'name'\np25\nS'Classification Tree'\np26\ns."
p19
s.