(dp1
S'Data Sampler'
p2
S"(dp1\nS'CVFolds'\np2\nI10\nsS'widgetXPosition'\np3\nI59\nsS'widgetYPosition'\np4\nI24\nsS'LOO'\np5\nI1\nsS'widgetWidth'\np6\nI316\nsS'selPercentage'\np7\nI80\nsS'Repeat'\np8\nI0\nsS'RandomSeed'\np9\nI1\nsS'pGroups'\np10\n(lp11\nF0.10000000000000001\naF0.25\naF0.5\nasS'widgetHeight'\np12\nI684\nsS'SelectType'\np13\nI0\nsS'savedWidgetGeometry'\np14\nS'\\x01\\xd9\\xd0\\xcb\\x00\\x01\\x00\\x00\\x00\\x00\\x00;\\x00\\x00\\x00\\x18\\x00\\x00\\x01\\x86\\x00\\x00\\x02\\xe8\\x00\\x00\\x00C\\x00\\x00\\x005\\x00\\x00\\x01~\\x00\\x00\\x02\\xe0\\x00\\x00\\x00\\x00\\x00\\x00'\np15\nsS'nGroups'\np16\nI3\nsS'widgetShown'\np17\nI0\nsS'GroupSeed'\np18\nI1\nsS'Stratified'\np19\nI1\nsS'outFold'\np20\nI1\nsS'useCases'\np21\nI0\nsS'localContextsVersion'\np22\n(I100\nI0\ntp23\nsS'localContexts'\np24\n(lp25\n(iOWContexts\nContext\np26\n(dp27\nS'metas'\np28\n(dp29\nsS'values'\np30\n(dp31\nS'nCases'\np32\n(I25\nI-2\ntp33\nsg7\n(I80\nI-2\ntp34\nssS'time'\np35\nF1338205027.345752\nsS'attributes'\np36\n(dp37\nS'57.958979'\np38\ncorange\n__pickleLoaderNamedConstants\np39\n(S'Variable_Type'\n(I1\nttRp40\nsS'428.000000'\np41\ng39\n(S'Variable_Type'\n(I1\nttRp42\nsS'ristorante_02_000_000'\np43\ng39\n(S'Variable_Type'\n(I1\nttRp44\nsS'0.190071'\np45\ng39\n(S'Variable_Type'\n(I1\nttRp46\nsS'ristorante'\np47\ng39\n(S'Variable_Type'\n(I1\nttRp48\nssS'noCopy'\np49\n(lp50\nS'orderedDomain'\np51\nasba(iOWContexts\nContext\np52\n(dp53\ng30\n(dp54\nS'nCases'\np55\n(I25\nI-2\ntp56\nsS'selPercentage'\np57\n(I80\nI-2\ntp58\nssg36\n(dp59\nS'sc'\np60\ng39\n(S'Variable_Type'\n(I2\nttRp61\nsS'zcf'\np62\ng39\n(S'Variable_Type'\n(I2\nttRp63\nsS'type'\np64\ng39\n(S'Variable_Type'\n(I1\nttRp65\nsS'name'\np66\ng39\n(S'Variable_Type'\n(I1\nttRp67\nsS'miao'\np68\ng39\n(S'Variable_Type'\n(I2\nttRp69\nssg28\n(dp70\nsg49\n(lp71\nS'orderedDomain'\np72\nasg35\nF1338202166.0363269\nsba(iOWContexts\nContext\np73\n(dp74\ng30\n(dp75\nS'nCases'\np76\n(I25\nI-2\ntp77\nsS'selPercentage'\np78\n(I80\nI-2\ntp79\nssg36\n(dp80\nS'94.125089'\np81\ng39\n(S'Variable_Type'\n(I1\nttRp82\nsS'0.297872'\np83\ng39\n(S'Variable_Type'\n(I1\nttRp84\nsS'strada'\np85\ng39\n(S'Variable_Type'\n(I1\nttRp86\nsS'477.000000'\np87\ng39\n(S'Variable_Type'\n(I1\nttRp88\nsS'strada_02_000_000'\np89\ng39\n(S'Variable_Type'\n(I1\nttRp90\nssg28\n(dp91\nsg49\n(lp92\nS'orderedDomain'\np93\nasg35\nF1338194433.506546\nsba(iOWContexts\nContext\np94\n(dp95\ng49\n(lp96\nS'orderedDomain'\np97\nasg36\n(dp98\nS'handicapped-infants'\np99\ng39\n(S'Variable_Type'\n(I1\nttRp100\nsS'water-project-cost-sharing'\np101\ng39\n(S'Variable_Type'\n(I1\nttRp102\nsS'education-spending'\np103\ng39\n(S'Variable_Type'\n(I1\nttRp104\nsS'adoption-of-the-budget-resolution'\np105\ng39\n(S'Variable_Type'\n(I1\nttRp106\nsS'immigration'\np107\ng39\n(S'Variable_Type'\n(I1\nttRp108\nsS'crime'\np109\ng39\n(S'Variable_Type'\n(I1\nttRp110\nsS'el-salvador-aid'\np111\ng39\n(S'Variable_Type'\n(I1\nttRp112\nsS'superfund-right-to-sue'\np113\ng39\n(S'Variable_Type'\n(I1\nttRp114\nsS'synfuels-corporation-cutback'\np115\ng39\n(S'Variable_Type'\n(I1\nttRp116\nsS'religious-groups-in-schools'\np117\ng39\n(S'Variable_Type'\n(I1\nttRp118\nsS'mx-missile'\np119\ng39\n(S'Variable_Type'\n(I1\nttRp120\nsS'anti-satellite-test-ban'\np121\ng39\n(S'Variable_Type'\n(I1\nttRp122\nsS'duty-free-exports'\np123\ng39\n(S'Variable_Type'\n(I1\nttRp124\nsS'party'\np125\ng39\n(S'Variable_Type'\n(I1\nttRp126\nsS'export-administration-act-south-africa'\np127\ng39\n(S'Variable_Type'\n(I1\nttRp128\nsS'aid-to-nicaraguan-contras'\np129\ng39\n(S'Variable_Type'\n(I1\nttRp130\nsS'physician-fee-freeze'\np131\ng39\n(S'Variable_Type'\n(I1\nttRp132\nssg28\n(dp133\nsg30\n(dp134\nS'nCases'\np135\n(I25\nI-2\ntp136\nsS'selPercentage'\np137\n(I80\nI-2\ntp138\nssg35\nF1338144736.288969\nsba(iOWContexts\nContext\np139\n(dp140\ng30\n(dp141\nS'nCases'\np142\n(I25\nI-2\ntp143\nsS'selPercentage'\np144\n(I80\nI-2\ntp145\nssg36\n(dp146\nS'sc'\np147\ng39\n(S'Variable_Type'\n(I2\nttRp148\nsS'lefr'\np149\ng39\n(S'Variable_Type'\n(I2\nttRp150\nsS'type'\np151\ng39\n(S'Variable_Type'\n(I1\nttRp152\nsS'name'\np153\ng39\n(S'Variable_Type'\n(I1\nttRp154\nsS'zcr'\np155\ng39\n(S'Variable_Type'\n(I2\nttRp156\nssg28\n(dp157\nsg49\n(lp158\nS'orderedDomain'\np159\nasg35\nF1337967120.026484\nsba(iOWContexts\nContext\np160\n(dp161\ng30\n(dp162\nS'nCases'\np163\n(I25\nI-2\ntp164\nsS'selPercentage'\np165\n(I80\nI-2\ntp166\nssg36\n(dp167\nS'sc'\np168\ng39\n(S'Variable_Type'\n(I2\nttRp169\nsS'lefr'\np170\ng39\n(S'Variable_Type'\n(I2\nttRp171\nsS'tipo'\np172\ng39\n(S'Variable_Type'\n(I1\nttRp173\nsS'zcr'\np174\ng39\n(S'Variable_Type'\n(I2\nttRp175\nssg28\n(dp176\nsg49\n(lp177\nS'orderedDomain'\np178\nasg35\nF1337963609.9601851\nsba(iOWContexts\nContext\np179\n(dp180\ng49\n(lp181\ng178\nasg36\n(dp182\nS'sc'\np183\ng39\n(S'Variable_Type'\n(I2\nttRp184\nsS'lefr'\np185\ng39\n(S'Variable_Type'\n(I2\nttRp186\nsS'name'\np187\ng39\n(S'Variable_Type'\n(I1\nttRp188\nsS'zcr'\np189\ng39\n(S'Variable_Type'\n(I2\nttRp190\nsS'tipo'\np191\ng39\n(S'Variable_Type'\n(I1\nttRp192\nssg28\n(dp193\nsg30\n(dp194\nS'nCases'\np195\n(I25\nI-2\ntp196\nsS'selPercentage'\np197\n(I80\nI-2\ntp198\nssg35\nF1337859161.3422561\nsba(iOWContexts\nContext\np199\n(dp200\ng49\n(lp201\nS'orderedDomain'\np202\nasg36\n(dp203\nS'sc'\np204\ng39\n(S'Variable_Type'\n(I1\nttRp205\nsS'lefr'\np206\ng39\n(S'Variable_Type'\n(I1\nttRp207\nsS'zcr'\np208\ng39\n(S'Variable_Type'\n(I1\nttRp209\nsS'tipo'\np210\ng39\n(S'Variable_Type'\n(I1\nttRp211\nssg28\n(dp212\nsg30\n(dp213\nS'nCases'\np214\n(I25\nI-2\ntp215\nsS'selPercentage'\np216\n(I80\nI-2\ntp217\nssg35\nF1337503306.200057\nsba(iOWContexts\nContext\np218\n(dp219\ng30\n(dp220\nS'nCases'\np221\n(I25\nI-2\ntp222\nsS'selPercentage'\np223\n(I80\nI-2\ntp224\nssg36\n(dp225\nS'sc'\np226\ng39\n(S'Variable_Type'\n(I1\nttRp227\nsS'lefr'\np228\ng39\n(S'Variable_Type'\n(I1\nttRp229\nsS'tipo'\np230\ng39\n(S'Variable_Type'\n(I1\nttRp231\nsS'zcr'\np232\ng39\n(S'Variable_Type'\n(I1\nttRp233\nssg28\n(dp234\nsg49\n(lp235\ng202\nasg35\nF1337289207.759084\nsba(iOWContexts\nContext\np236\n(dp237\ng30\n(dp238\ng221\n(I25\nI-2\ntp239\nsg223\n(I80\nI-2\ntp240\nssg36\n(dp241\nS'campione'\np242\ng39\n(S'Variable_Type'\n(I1\nttRp243\nsS'sc'\np244\ng39\n(S'Variable_Type'\n(I1\nttRp245\nsS'tipo'\np246\ng39\n(S'Variable_Type'\n(I1\nttRp247\nsS'zcr'\np248\ng39\n(S'Variable_Type'\n(I1\nttRp249\nsS'lefr'\np250\ng39\n(S'Variable_Type'\n(I1\nttRp251\nssg28\n(dp252\nsg49\n(lp253\nS'orderedDomain'\np254\nasg35\nF1337288919.2393811\nsba(iOWContexts\nContext\np255\n(dp256\ng49\n(lp257\nS'orderedDomain'\np258\nasg36\n(dp259\nS'campione'\np260\ng39\n(S'Variable_Type'\n(I1\nttRp261\nsS'sc'\np262\ng39\n(S'Variable_Type'\n(I1\nttRp263\nsS'zcr'\np264\ng39\n(S'Variable_Type'\n(I1\nttRp265\nsS'tipo'\np266\ng39\n(S'Variable_Type'\n(I1\nttRp267\nsS'lefr'\np268\ng39\n(S'Variable_Type'\n(I1\nttRp269\nssg28\n(dp270\nsg30\n(dp271\nS'nCases'\np272\n(I25\nI-2\ntp273\nsS'selPercentage'\np274\n(I70\nI-2\ntp275\nssg35\nF1337195048.6201329\nsba(iOWContexts\nContext\np276\n(dp277\ng30\n(dp278\nS'nCases'\np279\n(I25\nI-2\ntp280\nsS'selPercentage'\np281\n(I80\nI-2\ntp282\nssg36\n(dp283\nS'handicapped-infants'\np284\ng39\n(S'Variable_Type'\n(I1\nttRp285\nsS'superfund-right-to-sue'\np286\ng39\n(S'Variable_Type'\n(I1\nttRp287\nsS'duty-free-exports'\np288\ng39\n(S'Variable_Type'\n(I1\nttRp289\nsS'aid-to-nicaraguan-contras'\np290\ng39\n(S'Variable_Type'\n(I1\nttRp291\nsS'immigration'\np292\ng39\n(S'Variable_Type'\n(I1\nttRp293\nsS'crime'\np294\ng39\n(S'Variable_Type'\n(I1\nttRp295\nsS'el-salvador-aid'\np296\ng39\n(S'Variable_Type'\n(I1\nttRp297\nsS'education-spending'\np298\ng39\n(S'Variable_Type'\n(I1\nttRp299\nsS'synfuels-corporation-cutback'\np300\ng39\n(S'Variable_Type'\n(I1\nttRp301\nsS'religious-groups-in-schools'\np302\ng39\n(S'Variable_Type'\n(I1\nttRp303\nsS'mx-missile'\np304\ng39\n(S'Variable_Type'\n(I1\nttRp305\nsS'anti-satellite-test-ban'\np306\ng39\n(S'Variable_Type'\n(I1\nttRp307\nsS'water-project-cost-sharing'\np308\ng39\n(S'Variable_Type'\n(I1\nttRp309\nsS'party'\np310\ng39\n(S'Variable_Type'\n(I1\nttRp311\nsS'export-administration-act-south-africa'\np312\ng39\n(S'Variable_Type'\n(I1\nttRp313\nsS'adoption-of-the-budget-resolution'\np314\ng39\n(S'Variable_Type'\n(I1\nttRp315\nsS'physician-fee-freeze'\np316\ng39\n(S'Variable_Type'\n(I1\nttRp317\nssg28\n(dp318\nsg49\n(lp319\nS'orderedDomain'\np320\nasg35\nF1337161898.4979761\nsba(iOWContexts\nContext\np321\n(dp322\ng30\n(dp323\nS'nCases'\np324\n(I25\nI-2\ntp325\nsS'selPercentage'\np326\n(I80\nI-2\ntp327\nssg36\n(dp328\nS'campione'\np329\ng39\n(S'Variable_Type'\n(I1\nttRp330\nsS'sc'\np331\ng39\n(S'Variable_Type'\n(I1\nttRp332\nsS'tipo'\np333\ng39\n(S'Variable_Type'\n(I1\nttRp334\nsS'zcr'\np335\ng39\n(S'Variable_Type'\n(I1\nttRp336\nsS'lefr'\np337\ng39\n(S'Variable_Type'\n(I1\nttRp338\nssg28\n(dp339\nsg49\n(lp340\nS'orderedDomain'\np341\nasg35\nF1337158860.534095\nsba(iOWContexts\nContext\np342\n(dp343\ng30\n(dp344\nS'nCases'\np345\n(I25\nI-2\ntp346\nsS'selPercentage'\np347\n(I60\nI-2\ntp348\nssg36\n(dp349\nS'mode'\np350\ng39\n(S'Variable_Type'\n(I6\nttRp351\nssg28\n(dp352\nsg49\n(lp353\nS'orderedDomain'\np354\nasg35\nF1336575571.0157909\nsba(iOWContexts\nContext\np355\n(dp356\ng49\n(lp357\nS'orderedDomain'\np358\nasg36\n(dp359\nS'mode'\np360\ng39\n(S'Variable_Type'\n(I6\nttRp361\nssg28\n(dp362\nsg30\n(dp363\nS'nCases'\np364\n(I25\nI-2\ntp365\nsS'selPercentage'\np366\n(I60\nI-2\ntp367\nssg35\nF1336575571.0157909\nsba(iOWContexts\nContext\np368\n(dp369\ng30\n(dp370\nS'nCases'\np371\n(I25\nI-2\ntp372\nsS'selPercentage'\np373\n(I60\nI-2\ntp374\nssg36\n(dp375\nS'mode'\np376\ng39\n(S'Variable_Type'\n(I6\nttRp377\nssg28\n(dp378\nsg49\n(lp379\nS'orderedDomain'\np380\nasg35\nF1336575571.0157909\nsba(iOWContexts\nContext\np381\n(dp382\ng49\n(lp383\nS'orderedDomain'\np384\nasg36\n(dp385\nS'mode'\np386\ng39\n(S'Variable_Type'\n(I6\nttRp387\nssg28\n(dp388\nsg30\n(dp389\nS'nCases'\np390\n(I25\nI-2\ntp391\nsS'selPercentage'\np392\n(I60\nI-2\ntp393\nssg35\nF1336575477.553946\nsba(iOWContexts\nContext\np394\n(dp395\ng30\n(dp396\nS'nCases'\np397\n(I25\nI-2\ntp398\nsS'selPercentage'\np399\n(I60\nI-2\ntp400\nssg36\n(dp401\nS'mode'\np402\ng39\n(S'Variable_Type'\n(I6\nttRp403\nssg28\n(dp404\nsg49\n(lp405\nS'orderedDomain'\np406\nasg35\nF1336575477.553946\nsba(iOWContexts\nContext\np407\n(dp408\ng49\n(lp409\nS'orderedDomain'\np410\nasg36\n(dp411\nS'mode'\np412\ng39\n(S'Variable_Type'\n(I6\nttRp413\nssg28\n(dp414\nsg30\n(dp415\nS'nCases'\np416\n(I25\nI-2\ntp417\nsS'selPercentage'\np418\n(I60\nI-2\ntp419\nssg35\nF1336575477.553946\nsba(iOWContexts\nContext\np420\n(dp421\ng49\n(lp422\nS'orderedDomain'\np423\nasg36\n(dp424\nS'typed'\np425\ng39\n(S'Variable_Type'\n(I6\nttRp426\nsS'mode'\np427\ng39\n(S'Variable_Type'\n(I6\nttRp428\nssg28\n(dp429\nsg30\n(dp430\nS'nCases'\np431\n(I25\nI-2\ntp432\nsS'selPercentage'\np433\n(I60\nI-2\ntp434\nssg35\nF1336569863.031791\nsba(iOWContexts\nContext\np435\n(dp436\ng49\n(lp437\nS'orderedDomain'\np438\nasg36\n(dp439\nS'typed'\np440\ng39\n(S'Variable_Type'\n(I6\nttRp441\nsS'mode'\np442\ng39\n(S'Variable_Type'\n(I6\nttRp443\nssg28\n(dp444\nsg30\n(dp445\nS'nCases'\np446\n(I25\nI-2\ntp447\nsS'selPercentage'\np448\n(I60\nI-2\ntp449\nssg35\nF1336569863.031791\nsba(iOWContexts\nContext\np450\n(dp451\ng30\n(dp452\nS'nCases'\np453\n(I25\nI-2\ntp454\nsS'selPercentage'\np455\n(I60\nI-2\ntp456\nssg36\n(dp457\nS'typed'\np458\ng39\n(S'Variable_Type'\n(I6\nttRp459\nsS'mode'\np460\ng39\n(S'Variable_Type'\n(I6\nttRp461\nssg28\n(dp462\nsg49\n(lp463\nS'orderedDomain'\np464\nasg35\nF1336569863.031791\nsba(iOWContexts\nContext\np465\n(dp466\ng30\n(dp467\nS'nCases'\np468\n(I25\nI-2\ntp469\nsS'selPercentage'\np470\n(I60\nI-2\ntp471\nssg36\n(dp472\nS'typed'\np473\ng39\n(S'Variable_Type'\n(I6\nttRp474\nsS'mode'\np475\ng39\n(S'Variable_Type'\n(I6\nttRp476\nssg28\n(dp477\nsg49\n(lp478\nS'orderedDomain'\np479\nasg35\nF1336569863.031791\nsba(iOWContexts\nContext\np480\n(dp481\ng49\n(lp482\nS'orderedDomain'\np483\nasg36\n(dp484\nS'typed'\np485\ng39\n(S'Variable_Type'\n(I6\nttRp486\nsS'mode'\np487\ng39\n(S'Variable_Type'\n(I6\nttRp488\nssg28\n(dp489\nsg30\n(dp490\nS'nCases'\np491\n(I25\nI-2\ntp492\nsS'selPercentage'\np493\n(I60\nI-2\ntp494\nssg35\nF1336569863.031791\nsba(iOWContexts\nContext\np495\n(dp496\ng49\n(lp497\nS'orderedDomain'\np498\nasg36\n(dp499\nS'typed'\np500\ng39\n(S'Variable_Type'\n(I6\nttRp501\nsS'mode'\np502\ng39\n(S'Variable_Type'\n(I6\nttRp503\nssg28\n(dp504\nsg30\n(dp505\nS'nCases'\np506\n(I25\nI-2\ntp507\nsS'selPercentage'\np508\n(I60\nI-2\ntp509\nssg35\nF1336569863.031791\nsba(iOWContexts\nContext\np510\n(dp511\ng49\n(lp512\ng384\nasg36\n(dp513\nS'typed'\np514\ng39\n(S'Variable_Type'\n(I6\nttRp515\nsS'mode'\np516\ng39\n(S'Variable_Type'\n(I6\nttRp517\nssg28\n(dp518\nsg30\n(dp519\ng431\n(I25\nI-2\ntp520\nsg433\n(I60\nI-2\ntp521\nssg35\nF1336569405.7775619\nsba(iOWContexts\nContext\np522\n(dp523\ng49\n(lp524\ng354\nasg36\n(dp525\nS'typed'\np526\ng39\n(S'Variable_Type'\n(I6\nttRp527\nsS'mode'\np528\ng39\n(S'Variable_Type'\n(I6\nttRp529\nssg28\n(dp530\nsg30\n(dp531\ng446\n(I25\nI-2\ntp532\nsg448\n(I60\nI-2\ntp533\nssg35\nF1336569405.7775619\nsba(iOWContexts\nContext\np534\n(dp535\ng30\n(dp536\ng453\n(I25\nI-2\ntp537\nsg455\n(I60\nI-2\ntp538\nssg36\n(dp539\nS'typed'\np540\ng39\n(S'Variable_Type'\n(I6\nttRp541\nsS'mode'\np542\ng39\n(S'Variable_Type'\n(I6\nttRp543\nssg28\n(dp544\nsg49\n(lp545\ng406\nasg35\nF1336569405.7775619\nsba(iOWContexts\nContext\np546\n(dp547\ng30\n(dp548\ng468\n(I25\nI-2\ntp549\nsg470\n(I60\nI-2\ntp550\nssg36\n(dp551\nS'typed'\np552\ng39\n(S'Variable_Type'\n(I6\nttRp553\nsS'mode'\np554\ng39\n(S'Variable_Type'\n(I6\nttRp555\nssg28\n(dp556\nsg49\n(lp557\ng358\nasg35\nF1336569405.7775619\nsba(iOWContexts\nContext\np558\n(dp559\ng49\n(lp560\ng410\nasg36\n(dp561\nS'typed'\np562\ng39\n(S'Variable_Type'\n(I6\nttRp563\nsS'mode'\np564\ng39\n(S'Variable_Type'\n(I6\nttRp565\nssg28\n(dp566\nsg30\n(dp567\ng491\n(I25\nI-2\ntp568\nsg493\n(I60\nI-2\ntp569\nssg35\nF1336569405.7775619\nsba(iOWContexts\nContext\np570\n(dp571\ng49\n(lp572\ng380\nasg36\n(dp573\nS'typed'\np574\ng39\n(S'Variable_Type'\n(I6\nttRp575\nsS'mode'\np576\ng39\n(S'Variable_Type'\n(I6\nttRp577\nssg28\n(dp578\nsg30\n(dp579\ng506\n(I25\nI-2\ntp580\nsg508\n(I60\nI-2\ntp581\nssg35\nF1336569405.7775619\nsbasg32\nI25\nsS'Folds'\np582\nI1\nsS'UseSpecificSeed'\np583\nI0\nsS'GroupText'\np584\nS'0.1,0.25,0.5'\np585\nsS'CVFoldsInternal'\np586\nI10\ns."
p3
sS'Test Learners'
p4
S"(dp1\nS'selectedCScores'\np2\nccopy_reg\n_reconstructor\np3\n(c__builtin__\nlist\np4\ng4\n(ttRp5\nI0\naI1\naI2\naI3\naI8\nasS'localContextsVersion'\np6\n(I100\nI0\ntp7\nsS'selectedRScores'\np8\ng3\n(g4\ng4\n(ttRp9\nI1\naI4\naI6\nasS'pLearning'\np10\nI70\nsS'widgetHeight'\np11\nI654\nsS'widgetXPosition'\np12\nI0\nsS'widgetYPosition'\np13\nI0\nsS'precision'\np14\nI4\nsS'widgetShown'\np15\nI0\nsS'pRepeat'\np16\nI10\nsS'widgetWidth'\np17\nI774\nsS'resampling'\np18\nI0\nsS'localContexts'\np19\n(lp20\n(iOWContexts\nContext\np21\n(dp22\nS'metas'\np23\n(dp24\nsS'values'\np25\n(dp26\nS'targetClass'\np27\n(I0\nI-2\ntp28\nssS'time'\np29\nF1338205027.347878\nsS'attributes'\np30\n(dp31\nS'57.958979'\np32\ncorange\n__pickleLoaderNamedConstants\np33\n(S'Variable_Type'\n(I1\nttRp34\nsS'428.000000'\np35\ng33\n(S'Variable_Type'\n(I1\nttRp36\nsS'ristorante_02_000_000'\np37\ng33\n(S'Variable_Type'\n(I1\nttRp38\nsS'0.190071'\np39\ng33\n(S'Variable_Type'\n(I1\nttRp40\nsS'ristorante'\np41\ng33\n(S'Variable_Type'\n(I1\nttRp42\nssS'noCopy'\np43\n(lp44\nS'orderedDomain'\np45\nasba(iOWContexts\nContext\np46\n(dp47\ng25\n(dp48\nS'targetClass'\np49\n(I0\nI-2\ntp50\nssg30\n(dp51\nS'sc'\np52\ng33\n(S'Variable_Type'\n(I2\nttRp53\nsS'zcf'\np54\ng33\n(S'Variable_Type'\n(I2\nttRp55\nsS'type'\np56\ng33\n(S'Variable_Type'\n(I1\nttRp57\nsS'name'\np58\ng33\n(S'Variable_Type'\n(I1\nttRp59\nsS'miao'\np60\ng33\n(S'Variable_Type'\n(I2\nttRp61\nssg23\n(dp62\nsg43\n(lp63\nS'orderedDomain'\np64\nasg29\nF1338202166.0519111\nsba(iOWContexts\nContext\np65\n(dp66\ng43\n(lp67\nS'orderedDomain'\np68\nasg30\n(dp69\nS'sc'\np70\ng33\n(S'Variable_Type'\n(I2\nttRp71\nsS'zcf'\np72\ng33\n(S'Variable_Type'\n(I2\nttRp73\nsS'type'\np74\ng33\n(S'Variable_Type'\n(I1\nttRp75\nsS'name'\np76\ng33\n(S'Variable_Type'\n(I1\nttRp77\nsS'miao'\np78\ng33\n(S'Variable_Type'\n(I2\nttRp79\nssg23\n(dp80\nsg25\n(dp81\nS'targetClass'\np82\n(I0\nI-2\ntp83\nssg29\nF1338195415.2812879\nsba(iOWContexts\nContext\np84\n(dp85\ng43\n(lp86\nS'orderedDomain'\np87\nasg30\n(dp88\nS'94.125089'\np89\ng33\n(S'Variable_Type'\n(I1\nttRp90\nsS'0.297872'\np91\ng33\n(S'Variable_Type'\n(I1\nttRp92\nsS'strada'\np93\ng33\n(S'Variable_Type'\n(I1\nttRp94\nsS'477.000000'\np95\ng33\n(S'Variable_Type'\n(I1\nttRp96\nsS'strada_02_000_000'\np97\ng33\n(S'Variable_Type'\n(I1\nttRp98\nssg23\n(dp99\nsg25\n(dp100\nS'targetClass'\np101\n(I0\nI-2\ntp102\nssg29\nF1338194433.498831\nsba(iOWContexts\nContext\np103\n(dp104\ng25\n(dp105\nS'targetClass'\np106\n(I0\nI-2\ntp107\nssg30\n(dp108\nS'94.125089'\np109\ng33\n(S'Variable_Type'\n(I1\nttRp110\nsS'0.297872'\np111\ng33\n(S'Variable_Type'\n(I1\nttRp112\nsS'strada'\np113\ng33\n(S'Variable_Type'\n(I1\nttRp114\nsS'477.000000'\np115\ng33\n(S'Variable_Type'\n(I1\nttRp116\nsS'strada_02_000_000'\np117\ng33\n(S'Variable_Type'\n(I1\nttRp118\nssg23\n(dp119\nsg43\n(lp120\nS'orderedDomain'\np121\nasg29\nF1338194433.498831\nsba(iOWContexts\nContext\np122\n(dp123\ng25\n(dp124\nS'targetClass'\np125\n(I0\nI-2\ntp126\nssg30\n(dp127\nS'handicapped-infants'\np128\ng33\n(S'Variable_Type'\n(I1\nttRp129\nsS'superfund-right-to-sue'\np130\ng33\n(S'Variable_Type'\n(I1\nttRp131\nsS'duty-free-exports'\np132\ng33\n(S'Variable_Type'\n(I1\nttRp133\nsS'aid-to-nicaraguan-contras'\np134\ng33\n(S'Variable_Type'\n(I1\nttRp135\nsS'immigration'\np136\ng33\n(S'Variable_Type'\n(I1\nttRp137\nsS'crime'\np138\ng33\n(S'Variable_Type'\n(I1\nttRp139\nsS'el-salvador-aid'\np140\ng33\n(S'Variable_Type'\n(I1\nttRp141\nsS'education-spending'\np142\ng33\n(S'Variable_Type'\n(I1\nttRp143\nsS'synfuels-corporation-cutback'\np144\ng33\n(S'Variable_Type'\n(I1\nttRp145\nsS'religious-groups-in-schools'\np146\ng33\n(S'Variable_Type'\n(I1\nttRp147\nsS'mx-missile'\np148\ng33\n(S'Variable_Type'\n(I1\nttRp149\nsS'anti-satellite-test-ban'\np150\ng33\n(S'Variable_Type'\n(I1\nttRp151\nsS'water-project-cost-sharing'\np152\ng33\n(S'Variable_Type'\n(I1\nttRp153\nsS'party'\np154\ng33\n(S'Variable_Type'\n(I1\nttRp155\nsS'export-administration-act-south-africa'\np156\ng33\n(S'Variable_Type'\n(I1\nttRp157\nsS'adoption-of-the-budget-resolution'\np158\ng33\n(S'Variable_Type'\n(I1\nttRp159\nsS'physician-fee-freeze'\np160\ng33\n(S'Variable_Type'\n(I1\nttRp161\nssg23\n(dp162\nsg43\n(lp163\ng64\nasg29\nF1338144735.958652\nsba(iOWContexts\nContext\np164\n(dp165\ng43\n(lp166\ng68\nasg30\n(dp167\nS'handicapped-infants'\np168\ng33\n(S'Variable_Type'\n(I1\nttRp169\nsS'water-project-cost-sharing'\np170\ng33\n(S'Variable_Type'\n(I1\nttRp171\nsS'education-spending'\np172\ng33\n(S'Variable_Type'\n(I1\nttRp173\nsS'adoption-of-the-budget-resolution'\np174\ng33\n(S'Variable_Type'\n(I1\nttRp175\nsS'immigration'\np176\ng33\n(S'Variable_Type'\n(I1\nttRp177\nsS'crime'\np178\ng33\n(S'Variable_Type'\n(I1\nttRp179\nsS'el-salvador-aid'\np180\ng33\n(S'Variable_Type'\n(I1\nttRp181\nsS'superfund-right-to-sue'\np182\ng33\n(S'Variable_Type'\n(I1\nttRp183\nsS'synfuels-corporation-cutback'\np184\ng33\n(S'Variable_Type'\n(I1\nttRp185\nsS'religious-groups-in-schools'\np186\ng33\n(S'Variable_Type'\n(I1\nttRp187\nsS'mx-missile'\np188\ng33\n(S'Variable_Type'\n(I1\nttRp189\nsS'anti-satellite-test-ban'\np190\ng33\n(S'Variable_Type'\n(I1\nttRp191\nsS'duty-free-exports'\np192\ng33\n(S'Variable_Type'\n(I1\nttRp193\nsS'party'\np194\ng33\n(S'Variable_Type'\n(I1\nttRp195\nsS'export-administration-act-south-africa'\np196\ng33\n(S'Variable_Type'\n(I1\nttRp197\nsS'aid-to-nicaraguan-contras'\np198\ng33\n(S'Variable_Type'\n(I1\nttRp199\nsS'physician-fee-freeze'\np200\ng33\n(S'Variable_Type'\n(I1\nttRp201\nssg23\n(dp202\nsg25\n(dp203\nS'targetClass'\np204\n(I0\nI-2\ntp205\nssg29\nF1338144735.958652\nsba(iOWContexts\nContext\np206\n(dp207\ng43\n(lp208\nS'orderedDomain'\np209\nasg30\n(dp210\nS'sc'\np211\ng33\n(S'Variable_Type'\n(I2\nttRp212\nsS'lefr'\np213\ng33\n(S'Variable_Type'\n(I2\nttRp214\nsS'type'\np215\ng33\n(S'Variable_Type'\n(I1\nttRp216\nsS'name'\np217\ng33\n(S'Variable_Type'\n(I1\nttRp218\nsS'zcr'\np219\ng33\n(S'Variable_Type'\n(I2\nttRp220\nssg23\n(dp221\nsg25\n(dp222\nS'targetClass'\np223\n(I4\nI-2\ntp224\nssg29\nF1337967068.953897\nsba(iOWContexts\nContext\np225\n(dp226\ng25\n(dp227\nS'targetClass'\np228\n(I4\nI-2\ntp229\nssg30\n(dp230\nS'sc'\np231\ng33\n(S'Variable_Type'\n(I2\nttRp232\nsS'lefr'\np233\ng33\n(S'Variable_Type'\n(I2\nttRp234\nsS'type'\np235\ng33\n(S'Variable_Type'\n(I1\nttRp236\nsS'name'\np237\ng33\n(S'Variable_Type'\n(I1\nttRp238\nsS'zcr'\np239\ng33\n(S'Variable_Type'\n(I2\nttRp240\nssg23\n(dp241\nsg43\n(lp242\nS'orderedDomain'\np243\nasg29\nF1337967068.953897\nsba(iOWContexts\nContext\np244\n(dp245\ng25\n(dp246\nS'targetClass'\np247\n(I1\nI-2\ntp248\nssg30\n(dp249\nS'sc'\np250\ng33\n(S'Variable_Type'\n(I2\nttRp251\nsS'lefr'\np252\ng33\n(S'Variable_Type'\n(I2\nttRp253\nsS'name'\np254\ng33\n(S'Variable_Type'\n(I1\nttRp255\nsS'zcr'\np256\ng33\n(S'Variable_Type'\n(I2\nttRp257\nsS'tipo'\np258\ng33\n(S'Variable_Type'\n(I1\nttRp259\nssg23\n(dp260\nsg43\n(lp261\nS'orderedDomain'\np262\nasg29\nF1337859102.3203239\nsba(iOWContexts\nContext\np263\n(dp264\ng43\n(lp265\nS'orderedDomain'\np266\nasg30\n(dp267\nS'sc'\np268\ng33\n(S'Variable_Type'\n(I2\nttRp269\nsS'lefr'\np270\ng33\n(S'Variable_Type'\n(I2\nttRp271\nsS'name'\np272\ng33\n(S'Variable_Type'\n(I1\nttRp273\nsS'zcr'\np274\ng33\n(S'Variable_Type'\n(I2\nttRp275\nsS'tipo'\np276\ng33\n(S'Variable_Type'\n(I1\nttRp277\nssg23\n(dp278\nsg25\n(dp279\nS'targetClass'\np280\n(I1\nI-2\ntp281\nssg29\nF1337859102.3203239\nsba(iOWContexts\nContext\np282\n(dp283\ng43\n(lp284\ng262\nasg30\n(dp285\nS'sc'\np286\ng33\n(S'Variable_Type'\n(I2\nttRp287\nsS'lefr'\np288\ng33\n(S'Variable_Type'\n(I2\nttRp289\nsS'zcr'\np290\ng33\n(S'Variable_Type'\n(I2\nttRp291\nsS'tipo'\np292\ng33\n(S'Variable_Type'\n(I1\nttRp293\nssg23\n(dp294\nsg25\n(dp295\nS'targetClass'\np296\n(I1\nI-2\ntp297\nssg29\nF1337792270.294117\nsba(iOWContexts\nContext\np298\n(dp299\ng25\n(dp300\nS'targetClass'\np301\n(I1\nI-2\ntp302\nssg30\n(dp303\nS'sc'\np304\ng33\n(S'Variable_Type'\n(I2\nttRp305\nsS'lefr'\np306\ng33\n(S'Variable_Type'\n(I2\nttRp307\nsS'tipo'\np308\ng33\n(S'Variable_Type'\n(I1\nttRp309\nsS'zcr'\np310\ng33\n(S'Variable_Type'\n(I2\nttRp311\nssg23\n(dp312\nsg43\n(lp313\ng266\nasg29\nF1337792270.294117\nsba(iOWContexts\nContext\np314\n(dp315\ng25\n(dp316\nS'targetClass'\np317\n(I1\nI-2\ntp318\nssg30\n(dp319\nS'sc'\np320\ng33\n(S'Variable_Type'\n(I1\nttRp321\nsS'lefr'\np322\ng33\n(S'Variable_Type'\n(I1\nttRp323\nsS'tipo'\np324\ng33\n(S'Variable_Type'\n(I1\nttRp325\nsS'zcr'\np326\ng33\n(S'Variable_Type'\n(I1\nttRp327\nssg23\n(dp328\nsg43\n(lp329\nS'orderedDomain'\np330\nasg29\nF1337503078.59233\nsba(iOWContexts\nContext\np331\n(dp332\ng43\n(lp333\nS'orderedDomain'\np334\nasg30\n(dp335\nS'sc'\np336\ng33\n(S'Variable_Type'\n(I1\nttRp337\nsS'lefr'\np338\ng33\n(S'Variable_Type'\n(I1\nttRp339\nsS'zcr'\np340\ng33\n(S'Variable_Type'\n(I1\nttRp341\nsS'tipo'\np342\ng33\n(S'Variable_Type'\n(I1\nttRp343\nssg23\n(dp344\nsg25\n(dp345\nS'targetClass'\np346\n(I1\nI-2\ntp347\nssg29\nF1337503078.59233\nsba(iOWContexts\nContext\np348\n(dp349\ng43\n(lp350\nS'orderedDomain'\np351\nasg30\n(dp352\nS'campione'\np353\ng33\n(S'Variable_Type'\n(I1\nttRp354\nsS'sc'\np355\ng33\n(S'Variable_Type'\n(I1\nttRp356\nsS'zcr'\np357\ng33\n(S'Variable_Type'\n(I1\nttRp358\nsS'tipo'\np359\ng33\n(S'Variable_Type'\n(I1\nttRp360\nsS'lefr'\np361\ng33\n(S'Variable_Type'\n(I1\nttRp362\nssg23\n(dp363\nsg25\n(dp364\nS'targetClass'\np365\n(I0\nI-2\ntp366\nssg29\nF1337288919.9637411\nsba(iOWContexts\nContext\np367\n(dp368\ng25\n(dp369\nS'targetClass'\np370\n(I0\nI-2\ntp371\nssg30\n(dp372\nS'campione'\np373\ng33\n(S'Variable_Type'\n(I1\nttRp374\nsS'sc'\np375\ng33\n(S'Variable_Type'\n(I1\nttRp376\nsS'tipo'\np377\ng33\n(S'Variable_Type'\n(I1\nttRp378\nsS'zcr'\np379\ng33\n(S'Variable_Type'\n(I1\nttRp380\nsS'lefr'\np381\ng33\n(S'Variable_Type'\n(I1\nttRp382\nssg23\n(dp383\nsg43\n(lp384\nS'orderedDomain'\np385\nasg29\nF1337288919.9637411\nsba(iOWContexts\nContext\np386\n(dp387\ng25\n(dp388\nS'targetClass'\np389\n(I0\nI-2\ntp390\nssg30\n(dp391\nS'mode'\np392\ng33\n(S'Variable_Type'\n(I6\nttRp393\nssg23\n(dp394\nsg43\n(lp395\nS'orderedDomain'\np396\nasg29\nF1336635973.833261\nsba(iOWContexts\nContext\np397\n(dp398\ng43\n(lp399\nS'orderedDomain'\np400\nasg30\n(dp401\nS'mode'\np402\ng33\n(S'Variable_Type'\n(I6\nttRp403\nssg23\n(dp404\nsg25\n(dp405\nS'targetClass'\np406\n(I0\nI-2\ntp407\nssg29\nF1336635973.833261\nsba(iOWContexts\nContext\np408\n(dp409\ng25\n(dp410\ng389\n(I0\nI-2\ntp411\nssg30\n(dp412\nS'mode'\np413\ng33\n(S'Variable_Type'\n(I6\nttRp414\nssg23\n(dp415\nsg43\n(lp416\nS'orderedDomain'\np417\nasg29\nF1336635780.47225\nsba(iOWContexts\nContext\np418\n(dp419\ng43\n(lp420\nS'orderedDomain'\np421\nasg30\n(dp422\nS'mode'\np423\ng33\n(S'Variable_Type'\n(I6\nttRp424\nssg23\n(dp425\nsg25\n(dp426\ng406\n(I0\nI-2\ntp427\nssg29\nF1336635780.47225\nsbasS'savedWidgetGeometry'\np428\nS'\\x01\\xd9\\xd0\\xcb\\x00\\x01\\x00\\x00\\x00\\x00\\x00\\x00\\x00\\x00\\x00\\x00\\x00\\x00\\x03\\x05\\x00\\x00\\x02\\x8d\\x00\\x00\\x00\\x00\\x00\\x00\\x00\\x00\\x00\\x00\\x03\\x05\\x00\\x00\\x02\\x8d\\x00\\x00\\x00\\x00\\x00\\x00'\np429\nsS'nFolds'\np430\nI10\nsS'applyOnAnyChange'\np431\nI01\ns."
p5
sS'Naive Bayes'
p6
S"(dp1\nS'adjustThreshold'\np2\nI0\nsS'name'\np3\nS'Naive Bayes'\np4\nsS'probEstimation'\np5\nI0\nsS'm_estimator.m'\np6\nF2\nsS'widgetHeight'\np7\nNsS'condProbEstimation'\np8\nI0\nsS'widgetYPosition'\np9\nNsS'savedWidgetGeometry'\np10\nNsS'widgetShown'\np11\nNsS'windowProportion'\np12\nF0.5\nsS'widgetWidth'\np13\nNsS'widgetXPosition'\np14\nNs."
p7
sS'Data Table'
p8
S"(dp1\nS'autoCommit'\np2\nI00\nsS'widgetYPosition'\np3\nI0\nsS'showMeta'\np4\nI1\nsS'distColorRgb'\np5\n(I220\nI220\nI220\nI255\ntp6\nsS'widgetHeight'\np7\nI654\nsS'widgetXPosition'\np8\nI0\nsS'showAttributeLabels'\np9\nI1\nsS'showDistributions'\np10\nI1\nsS'widgetShown'\np11\nI0\nsS'savedWidgetGeometry'\np12\nS'\\x01\\xd9\\xd0\\xcb\\x00\\x01\\x00\\x00\\x00\\x00\\x00\\x00\\x00\\x00\\x00\\x00\\x00\\x00\\x03\\x05\\x00\\x00\\x02\\x8d\\x00\\x00\\x00\\x00\\x00\\x00\\x00\\x00\\x00\\x00\\x03\\x05\\x00\\x00\\x02\\x8d\\x00\\x00\\x00\\x00\\x00\\x00'\np13\nsS'widgetWidth'\np14\nI774\nsS'selectedSchemaIndex'\np15\nI0\nsS'colorByClass'\np16\nI01\ns."
p9
sS'Interactive Tree Builder'
p10
S"(dp1\nS'localContextsVersion'\np2\n(I100\nI0\ntp3\nsS'expslider'\np4\nI5\nsS'dist'\np5\nI1\nsS'sliderValue'\np6\nI5\nsS'adist'\np7\nI1\nsS'widgetXPosition'\np8\nI0\nsS'widgetYPosition'\np9\nI0\nsS'pmaj'\np10\nI1\nsS'widgetShown'\np11\nI0\nsS'savedWidgetGeometry'\np12\nS'\\x01\\xd9\\xd0\\xcb\\x00\\x01\\x00\\x00\\x00\\x00\\x00\\x00\\x00\\x00\\x00\\x00\\x00\\x00\\x03\\x05\\x00\\x00\\x02\\x8d\\x00\\x00\\x00\\x00\\x00\\x00\\x00\\x00\\x00\\x00\\x03\\x05\\x00\\x00\\x02\\x8d\\x00\\x00\\x00\\x00\\x00\\x00'\np13\nsS'widgetWidth'\np14\nI774\nsS'ptarget'\np15\nI1\nsS'widgetHeight'\np16\nI654\nsS'inst'\np17\nI1\nsS'maj'\np18\nI1\nsS'localContexts'\np19\n(lp20\n(iOWContexts\nContext\np21\n(dp22\nS'values'\np23\n(dp24\nS'targetClass'\np25\n(I0\nI-2\ntp26\nssS'attributes'\np27\n(dp28\nS'sc'\np29\ncorange\n__pickleLoaderNamedConstants\np30\n(S'Variable_Type'\n(I2\nttRp31\nsS'zcf'\np32\ng30\n(S'Variable_Type'\n(I2\nttRp33\nsS'type'\np34\ncorange\nStringList\np35\n(tRp36\nS'auto'\naS'lezione'\naS'parco'\naS'ristorante'\naS'strada'\naS'treno'\naS'tv'\na(dbsS'name'\np37\ng30\n(S'Variable_Type'\n(I1\nttRp38\nsS'miao'\np39\ng30\n(S'Variable_Type'\n(I2\nttRp40\nssS'metas'\np41\n(dp42\nsS'noCopy'\np43\n(lp44\nS'orderedDomain'\np45\nasS'time'\np46\nF1338202169.862087\nsba(iOWContexts\nContext\np47\n(dp48\ng43\n(lp49\nS'orderedDomain'\np50\nasg27\n(dp51\nS'sc'\np52\ng30\n(S'Variable_Type'\n(I2\nttRp53\nsS'zcf'\np54\ng30\n(S'Variable_Type'\n(I2\nttRp55\nsS'type'\np56\ng35\n(tRp57\nS'auto'\naS'lezione'\naS'parco'\naS'ristorante'\naS'strada'\naS'treno'\naS'tv'\na(dbsS'name'\np58\ng30\n(S'Variable_Type'\n(I1\nttRp59\nsS'miao'\np60\ng30\n(S'Variable_Type'\n(I2\nttRp61\nssg41\n(dp62\nsg23\n(dp63\nS'targetClass'\np64\n(I0\nI-2\ntp65\nssg46\nF1338195487.241981\nsba(iOWContexts\nContext\np66\n(dp67\ng23\n(dp68\nS'targetClass'\np69\n(I0\nI-2\ntp70\nssg27\n(dp71\nS'sc'\np72\ng30\n(S'Variable_Type'\n(I2\nttRp73\nsS'zcf'\np74\ng30\n(S'Variable_Type'\n(I2\nttRp75\nsS'type'\np76\ng35\n(tRp77\nS'auto'\naS'parco'\naS'strada'\naS'treno'\naS'tv'\na(dbsS'name'\np78\ng30\n(S'Variable_Type'\n(I1\nttRp79\nsS'miao'\np80\ng30\n(S'Variable_Type'\n(I2\nttRp81\nssg41\n(dp82\nsg43\n(lp83\nS'orderedDomain'\np84\nasg46\nF1338144874.5773909\nsba(iOWContexts\nContext\np85\n(dp86\ng43\n(lp87\nS'orderedDomain'\np88\nasg27\n(dp89\nS'sc'\np90\ng30\n(S'Variable_Type'\n(I2\nttRp91\nsS'zcf'\np92\ng30\n(S'Variable_Type'\n(I2\nttRp93\nsS'type'\np94\ng35\n(tRp95\nS'auto'\naS'parco'\naS'strada'\naS'treno'\naS'tv'\na(dbsS'name'\np96\ng30\n(S'Variable_Type'\n(I1\nttRp97\nsS'miao'\np98\ng30\n(S'Variable_Type'\n(I2\nttRp99\nssg41\n(dp100\nsg23\n(dp101\nS'targetClass'\np102\n(I0\nI-2\ntp103\nssg46\nF1338144874.5773909\nsba(iOWContexts\nContext\np104\n(dp105\ng23\n(dp106\ng69\n(I0\nI-2\ntp107\nssg27\n(dp108\nS'handicapped-infants'\np109\ng30\n(S'Variable_Type'\n(I1\nttRp110\nsS'superfund-right-to-sue'\np111\ng30\n(S'Variable_Type'\n(I1\nttRp112\nsS'duty-free-exports'\np113\ng30\n(S'Variable_Type'\n(I1\nttRp114\nsS'aid-to-nicaraguan-contras'\np115\ng30\n(S'Variable_Type'\n(I1\nttRp116\nsS'immigration'\np117\ng30\n(S'Variable_Type'\n(I1\nttRp118\nsS'crime'\np119\ng30\n(S'Variable_Type'\n(I1\nttRp120\nsS'el-salvador-aid'\np121\ng30\n(S'Variable_Type'\n(I1\nttRp122\nsS'education-spending'\np123\ng30\n(S'Variable_Type'\n(I1\nttRp124\nsS'synfuels-corporation-cutback'\np125\ng30\n(S'Variable_Type'\n(I1\nttRp126\nsS'religious-groups-in-schools'\np127\ng30\n(S'Variable_Type'\n(I1\nttRp128\nsS'mx-missile'\np129\ng30\n(S'Variable_Type'\n(I1\nttRp130\nsS'anti-satellite-test-ban'\np131\ng30\n(S'Variable_Type'\n(I1\nttRp132\nsS'water-project-cost-sharing'\np133\ng30\n(S'Variable_Type'\n(I1\nttRp134\nsS'party'\np135\ng35\n(tRp136\nS'republican'\naS'democrat'\na(dbsS'export-administration-act-south-africa'\np137\ng30\n(S'Variable_Type'\n(I1\nttRp138\nsS'adoption-of-the-budget-resolution'\np139\ng30\n(S'Variable_Type'\n(I1\nttRp140\nsS'physician-fee-freeze'\np141\ng30\n(S'Variable_Type'\n(I1\nttRp142\nssg41\n(dp143\nsg43\n(lp144\ng84\nasg46\nF1338144736.2996321\nsba(iOWContexts\nContext\np145\n(dp146\ng43\n(lp147\ng88\nasg27\n(dp148\nS'handicapped-infants'\np149\ng30\n(S'Variable_Type'\n(I1\nttRp150\nsS'water-project-cost-sharing'\np151\ng30\n(S'Variable_Type'\n(I1\nttRp152\nsS'education-spending'\np153\ng30\n(S'Variable_Type'\n(I1\nttRp154\nsS'adoption-of-the-budget-resolution'\np155\ng30\n(S'Variable_Type'\n(I1\nttRp156\nsS'immigration'\np157\ng30\n(S'Variable_Type'\n(I1\nttRp158\nsS'crime'\np159\ng30\n(S'Variable_Type'\n(I1\nttRp160\nsS'el-salvador-aid'\np161\ng30\n(S'Variable_Type'\n(I1\nttRp162\nsS'superfund-right-to-sue'\np163\ng30\n(S'Variable_Type'\n(I1\nttRp164\nsS'synfuels-corporation-cutback'\np165\ng30\n(S'Variable_Type'\n(I1\nttRp166\nsS'religious-groups-in-schools'\np167\ng30\n(S'Variable_Type'\n(I1\nttRp168\nsS'mx-missile'\np169\ng30\n(S'Variable_Type'\n(I1\nttRp170\nsS'anti-satellite-test-ban'\np171\ng30\n(S'Variable_Type'\n(I1\nttRp172\nsS'duty-free-exports'\np173\ng30\n(S'Variable_Type'\n(I1\nttRp174\nsS'party'\np175\ng35\n(tRp176\nS'republican'\naS'democrat'\na(dbsS'export-administration-act-south-africa'\np177\ng30\n(S'Variable_Type'\n(I1\nttRp178\nsS'aid-to-nicaraguan-contras'\np179\ng30\n(S'Variable_Type'\n(I1\nttRp180\nsS'physician-fee-freeze'\np181\ng30\n(S'Variable_Type'\n(I1\nttRp182\nssg41\n(dp183\nsg23\n(dp184\ng102\n(I0\nI-2\ntp185\nssg46\nF1338144736.2996321\nsba(iOWContexts\nContext\np186\n(dp187\ng43\n(lp188\nS'orderedDomain'\np189\nasg27\n(dp190\nS'sc'\np191\ng30\n(S'Variable_Type'\n(I2\nttRp192\nsS'lefr'\np193\ng30\n(S'Variable_Type'\n(I2\nttRp194\nsS'type'\np195\ng35\n(tRp196\nS'auto'\naS'parco'\naS'strada'\naS'treno'\naS'tv'\na(dbsS'name'\np197\ng30\n(S'Variable_Type'\n(I1\nttRp198\nsS'zcr'\np199\ng30\n(S'Variable_Type'\n(I2\nttRp200\nssg41\n(dp201\nsg23\n(dp202\nS'targetClass'\np203\n(I0\nI-2\ntp204\nssg46\nF1337967120.108103\nsba(iOWContexts\nContext\np205\n(dp206\ng23\n(dp207\nS'targetClass'\np208\n(I0\nI-2\ntp209\nssg27\n(dp210\nS'sc'\np211\ng30\n(S'Variable_Type'\n(I2\nttRp212\nsS'lefr'\np213\ng30\n(S'Variable_Type'\n(I2\nttRp214\nsS'type'\np215\ng35\n(tRp216\nS'auto'\naS'parco'\naS'strada'\naS'treno'\naS'tv'\na(dbsS'name'\np217\ng30\n(S'Variable_Type'\n(I1\nttRp218\nsS'zcr'\np219\ng30\n(S'Variable_Type'\n(I2\nttRp220\nssg41\n(dp221\nsg43\n(lp222\nS'orderedDomain'\np223\nasg46\nF1337967120.108103\nsba(iOWContexts\nContext\np224\n(dp225\ng43\n(lp226\nS'orderedDomain'\np227\nasg27\n(dp228\nS'sc'\np229\ng30\n(S'Variable_Type'\n(I2\nttRp230\nsS'lefr'\np231\ng30\n(S'Variable_Type'\n(I2\nttRp232\nsS'type'\np233\ng35\n(tRp234\nS'auto'\naS'centrocommerciale'\naS'parco'\naS'ristorante'\naS'strada'\naS'treno'\naS'tv'\na(dbsS'name'\np235\ng30\n(S'Variable_Type'\n(I1\nttRp236\nsS'zcr'\np237\ng30\n(S'Variable_Type'\n(I2\nttRp238\nssg41\n(dp239\nsg23\n(dp240\nS'targetClass'\np241\n(I0\nI-2\ntp242\nssg46\nF1337963624.6474349\nsba(iOWContexts\nContext\np243\n(dp244\ng23\n(dp245\nS'targetClass'\np246\n(I0\nI-2\ntp247\nssg27\n(dp248\nS'sc'\np249\ng30\n(S'Variable_Type'\n(I2\nttRp250\nsS'lefr'\np251\ng30\n(S'Variable_Type'\n(I2\nttRp252\nsS'type'\np253\ng35\n(tRp254\nS'auto'\naS'centrocommerciale'\naS'parco'\naS'ristorante'\naS'strada'\naS'treno'\naS'tv'\na(dbsS'name'\np255\ng30\n(S'Variable_Type'\n(I1\nttRp256\nsS'zcr'\np257\ng30\n(S'Variable_Type'\n(I2\nttRp258\nssg41\n(dp259\nsg43\n(lp260\nS'orderedDomain'\np261\nasg46\nF1337963624.6474349\nsba(iOWContexts\nContext\np262\n(dp263\ng43\n(lp264\nS'orderedDomain'\np265\nasg27\n(dp266\nS'sc'\np267\ng30\n(S'Variable_Type'\n(I2\nttRp268\nsS'lefr'\np269\ng30\n(S'Variable_Type'\n(I2\nttRp270\nsS'zcr'\np271\ng30\n(S'Variable_Type'\n(I2\nttRp272\nsS'tipo'\np273\ng35\n(tRp274\nS'auto'\naS'centrocommerciale'\naS'parco'\naS'ristorante'\na(dbssg41\n(dp275\nsg23\n(dp276\ng241\n(I0\nI-2\ntp277\nssg46\nF1337963609.971065\nsba(iOWContexts\nContext\np278\n(dp279\ng23\n(dp280\ng246\n(I0\nI-2\ntp281\nssg27\n(dp282\nS'sc'\np283\ng30\n(S'Variable_Type'\n(I2\nttRp284\nsS'lefr'\np285\ng30\n(S'Variable_Type'\n(I2\nttRp286\nsS'tipo'\np287\ng35\n(tRp288\nS'auto'\naS'centrocommerciale'\naS'parco'\naS'ristorante'\na(dbsS'zcr'\np289\ng30\n(S'Variable_Type'\n(I2\nttRp290\nssg41\n(dp291\nsg43\n(lp292\nS'orderedDomain'\np293\nasg46\nF1337963609.971065\nsba(iOWContexts\nContext\np294\n(dp295\ng23\n(dp296\nS'targetClass'\np297\n(I0\nI-2\ntp298\nssg27\n(dp299\nS'sc'\np300\ng30\n(S'Variable_Type'\n(I2\nttRp301\nsS'lefr'\np302\ng30\n(S'Variable_Type'\n(I2\nttRp303\nsS'name'\np304\ng30\n(S'Variable_Type'\n(I1\nttRp305\nsS'zcr'\np306\ng30\n(S'Variable_Type'\n(I2\nttRp307\nsS'tipo'\np308\ng35\n(tRp309\nS'auto'\naS'centrocommerciale'\naS'parco'\naS'ristorante'\na(dbssg41\n(dp310\nsg43\n(lp311\nS'orderedDomain'\np312\nasg46\nF1337859161.3803401\nsba(iOWContexts\nContext\np313\n(dp314\ng43\n(lp315\nS'orderedDomain'\np316\nasg27\n(dp317\nS'sc'\np318\ng30\n(S'Variable_Type'\n(I2\nttRp319\nsS'lefr'\np320\ng30\n(S'Variable_Type'\n(I2\nttRp321\nsS'name'\np322\ng30\n(S'Variable_Type'\n(I1\nttRp323\nsS'zcr'\np324\ng30\n(S'Variable_Type'\n(I2\nttRp325\nsS'tipo'\np326\ng35\n(tRp327\nS'auto'\naS'centrocommerciale'\naS'parco'\naS'ristorante'\na(dbssg41\n(dp328\nsg23\n(dp329\nS'targetClass'\np330\n(I0\nI-2\ntp331\nssg46\nF1337859161.3803401\nsba(iOWContexts\nContext\np332\n(dp333\ng23\n(dp334\nS'targetClass'\np335\n(I0\nI-2\ntp336\nssg27\n(dp337\nS'sc'\np338\ng30\n(S'Variable_Type'\n(I2\nttRp339\nsS'lefr'\np340\ng30\n(S'Variable_Type'\n(I2\nttRp341\nsS'name'\np342\ng30\n(S'Variable_Type'\n(I1\nttRp343\nsS'zcr'\np344\ng30\n(S'Variable_Type'\n(I2\nttRp345\nsS'tipo'\np346\ng35\n(tRp347\nS'auto'\naS'ristorante'\naS'centrocommerciale'\naS'parco'\na(dbssg41\n(dp348\nsg43\n(lp349\nS'orderedDomain'\np350\nasg46\nF1337510857.230417\nsba(iOWContexts\nContext\np351\n(dp352\ng43\n(lp353\nS'orderedDomain'\np354\nasg27\n(dp355\nS'sc'\np356\ng30\n(S'Variable_Type'\n(I2\nttRp357\nsS'lefr'\np358\ng30\n(S'Variable_Type'\n(I2\nttRp359\nsS'name'\np360\ng30\n(S'Variable_Type'\n(I1\nttRp361\nsS'zcr'\np362\ng30\n(S'Variable_Type'\n(I2\nttRp363\nsS'tipo'\np364\ng35\n(tRp365\nS'auto'\naS'ristorante'\naS'centrocommerciale'\naS'parco'\na(dbssg41\n(dp366\nsg23\n(dp367\nS'targetClass'\np368\n(I0\nI-2\ntp369\nssg46\nF1337510857.230417\nsba(iOWContexts\nContext\np370\n(dp371\ng23\n(dp372\ng335\n(I0\nI-2\ntp373\nssg27\n(dp374\nS'sc'\np375\ng30\n(S'Variable_Type'\n(I2\nttRp376\nsS'lefr'\np377\ng30\n(S'Variable_Type'\n(I2\nttRp378\nsS'tipo'\np379\ng347\nsS'zcr'\np380\ng30\n(S'Variable_Type'\n(I2\nttRp381\nssg41\n(dp382\nsg43\n(lp383\ng350\nasg46\nF1337503985.9999499\nsba(iOWContexts\nContext\np384\n(dp385\ng43\n(lp386\ng354\nasg27\n(dp387\nS'sc'\np388\ng30\n(S'Variable_Type'\n(I2\nttRp389\nsS'lefr'\np390\ng30\n(S'Variable_Type'\n(I2\nttRp391\nsS'zcr'\np392\ng30\n(S'Variable_Type'\n(I2\nttRp393\nsS'tipo'\np394\ng365\nssg41\n(dp395\nsg23\n(dp396\ng368\n(I0\nI-2\ntp397\nssg46\nF1337503985.9999499\nsba(iOWContexts\nContext\np398\n(dp399\ng23\n(dp400\ng335\n(I0\nI-2\ntp401\nssg27\n(dp402\nS'sc'\np403\ng30\n(S'Variable_Type'\n(I1\nttRp404\nsS'lefr'\np405\ng30\n(S'Variable_Type'\n(I1\nttRp406\nsS'tipo'\np407\ng347\nsS'zcr'\np408\ng30\n(S'Variable_Type'\n(I1\nttRp409\nssg41\n(dp410\nsg43\n(lp411\nS'orderedDomain'\np412\nasg46\nF1337503244.7712109\nsba(iOWContexts\nContext\np413\n(dp414\ng43\n(lp415\nS'orderedDomain'\np416\nasg27\n(dp417\nS'sc'\np418\ng30\n(S'Variable_Type'\n(I1\nttRp419\nsS'lefr'\np420\ng30\n(S'Variable_Type'\n(I1\nttRp421\nsS'zcr'\np422\ng30\n(S'Variable_Type'\n(I1\nttRp423\nsS'tipo'\np424\ng365\nssg41\n(dp425\nsg23\n(dp426\ng368\n(I0\nI-2\ntp427\nssg46\nF1337503244.7712109\nsba(iOWContexts\nContext\np428\n(dp429\ng43\n(lp430\ng412\nasg27\n(dp431\nS'sc'\np432\ng30\n(S'Variable_Type'\n(I1\nttRp433\nsS'lefr'\np434\ng30\n(S'Variable_Type'\n(I1\nttRp435\nsS'zcr'\np436\ng30\n(S'Variable_Type'\n(I1\nttRp437\nsS'tipo'\np438\ng35\n(tRp439\nS'auto'\naS'centrocommerciale'\naS'ristorante'\naS'parco'\na(dbssg41\n(dp440\nsg23\n(dp441\nS'targetClass'\np442\n(I0\nI-2\ntp443\nssg46\nF1337289082.0403669\nsba(iOWContexts\nContext\np444\n(dp445\ng23\n(dp446\nS'targetClass'\np447\n(I0\nI-2\ntp448\nssg27\n(dp449\nS'sc'\np450\ng30\n(S'Variable_Type'\n(I1\nttRp451\nsS'lefr'\np452\ng30\n(S'Variable_Type'\n(I1\nttRp453\nsS'tipo'\np454\ng35\n(tRp455\nS'auto'\naS'centrocommerciale'\naS'ristorante'\naS'parco'\na(dbsS'zcr'\np456\ng30\n(S'Variable_Type'\n(I1\nttRp457\nssg41\n(dp458\nsg43\n(lp459\ng416\nasg46\nF1337289082.0403669\nsba(iOWContexts\nContext\np460\n(dp461\ng23\n(dp462\nS'targetClass'\np463\n(I0\nI-2\ntp464\nssg27\n(dp465\nS'campione'\np466\ng30\n(S'Variable_Type'\n(I1\nttRp467\nsS'sc'\np468\ng30\n(S'Variable_Type'\n(I1\nttRp469\nsS'tipo'\np470\ng35\n(tRp471\nS'auto'\naS'centrocommerciale'\naS'parco'\naS'ristorante'\na(dbsS'zcr'\np472\ng30\n(S'Variable_Type'\n(I1\nttRp473\nsS'lefr'\np474\ng30\n(S'Variable_Type'\n(I1\nttRp475\nssg41\n(dp476\nsg43\n(lp477\nS'orderedDomain'\np478\nasg46\nF1337254371.204824\nsba(iOWContexts\nContext\np479\n(dp480\ng43\n(lp481\nS'orderedDomain'\np482\nasg27\n(dp483\nS'campione'\np484\ng30\n(S'Variable_Type'\n(I1\nttRp485\nsS'sc'\np486\ng30\n(S'Variable_Type'\n(I1\nttRp487\nsS'zcr'\np488\ng30\n(S'Variable_Type'\n(I1\nttRp489\nsS'tipo'\np490\ng35\n(tRp491\nS'auto'\naS'centrocommerciale'\naS'parco'\naS'ristorante'\na(dbsS'lefr'\np492\ng30\n(S'Variable_Type'\n(I1\nttRp493\nssg41\n(dp494\nsg23\n(dp495\nS'targetClass'\np496\n(I0\nI-2\ntp497\nssg46\nF1337254371.204824\nsbas."
p11
sS'Confusion Matrix'
p12
S"(dp1\nS'widgetHeight'\np2\nI654\nsS'widgetXPosition'\np3\nI0\nsS'widgetYPosition'\np4\nI0\nsS'widgetShown'\np5\nI0\nsS'savedWidgetGeometry'\np6\nS'\\x01\\xd9\\xd0\\xcb\\x00\\x01\\x00\\x00\\x00\\x00\\x00\\x00\\x00\\x00\\x00\\x00\\x00\\x00\\x03\\x05\\x00\\x00\\x02\\x8d\\x00\\x00\\x00\\x00\\x00\\x00\\x00\\x00\\x00\\x00\\x03\\x05\\x00\\x00\\x02\\x8d\\x00\\x00\\x00\\x00\\x00\\x00'\np7\nsS'widgetWidth'\np8\nI774\ns."
p13
sS'File'
p14
S"(dp1\nS'widgetHeight'\np2\nI654\nsS'widgetXPosition'\np3\nI0\nsS'widgetYPosition'\np4\nI0\nsS'savedWidgetGeometry'\np5\nS'\\x01\\xd9\\xd0\\xcb\\x00\\x01\\x00\\x00\\x00\\x00\\x00\\x00\\x00\\x00\\x00\\x00\\x00\\x00\\x03\\x05\\x00\\x00\\x02\\x8d\\x00\\x00\\x00\\x00\\x00\\x00\\x00\\x00\\x00\\x00\\x03\\x05\\x00\\x00\\x02\\x8d\\x00\\x00\\x00\\x00\\x00\\x00'\np6\nsS'widgetShown'\np7\nI0\nsS'showAdvanced'\np8\nI0\nsS'createNewOn'\np9\nI1\nsS'widgetWidth'\np10\nI774\nsS'localContextsVersion'\np11\n(I100\nI0\ntp12\nsS'localContexts'\np13\n(lp14\n(iOWContexts\nContext\np15\n(dp16\nS'symbolDK'\np17\nS''\nsS'symbolDC'\np18\nS''\nsS'time'\np19\nF1338205027.16892\nsS'filename'\np20\nS''\nsba(iOWContexts\nContext\np21\n(dp22\ng18\nS''\nsg17\nS''\nsg20\nS''\nsg19\nF1338204944.3277199\nsba(iOWContexts\nContext\np23\n(dp24\ng17\nS''\nsg18\nS''\nsg19\nF1338194433.1802261\nsg20\nS''\nsba(iOWContexts\nContext\np25\n(dp26\ng18\nS''\nsg17\nS''\nsg20\nS''\nsg19\nF1338194433.1802261\nsba(iOWContexts\nContext\np27\n(dp28\ng17\nS''\nsg18\nS''\nsg19\nF1338144778.593581\nsg20\nS''\nsba(iOWContexts\nContext\np29\n(dp30\ng18\nS''\nsg17\nS''\nsg20\nS''\nsg19\nF1338144778.593581\nsba(iOWContexts\nContext\np31\n(dp32\ng17\nS''\nsg18\nS''\nsg19\nF1338144735.7122331\nsg20\nS'/usr/share/doc/python-orange/datasets/voting.tab'\np33\nsba(iOWContexts\nContext\np34\n(dp35\ng18\nS''\nsg17\nS''\nsg20\nS'/usr/share/doc/python-orange/datasets/voting.tab'\np36\nsg19\nF1338144735.7122331\nsba(iOWContexts\nContext\np37\n(dp38\ng18\nS''\nsg17\nS''\nsg20\nS'/home/ciopper90/sound/source/dataset.tab'\np39\nsg19\nF1337967068.7729509\nsba(iOWContexts\nContext\np40\n(dp41\ng17\nS''\nsg18\nS''\nsg19\nF1337967068.7729509\nsg20\nS'/home/ciopper90/sound/source/dataset.tab'\np42\nsba(iOWContexts\nContext\np43\n(dp44\ng18\nS''\nsg17\nS''\nsg20\nS''\nsg19\nF1337966412.5995309\nsba(iOWContexts\nContext\np45\n(dp46\ng17\nS''\nsg18\nS''\nsg19\nF1337966412.5995309\nsg20\nS''\nsba(iOWContexts\nContext\np47\n(dp48\ng18\nS''\nsg17\nS''\nsg20\nS''\nsg19\nF1337966392.2664671\nsba(iOWContexts\nContext\np49\n(dp50\ng17\nS''\nsg18\nS''\nsg19\nF1337966392.2664671\nsg20\nS''\nsba(iOWContexts\nContext\np51\n(dp52\ng18\nS''\nsg17\nS''\nsg20\nS'/home/ciopper90/tesi/Source/audio.tab'\np53\nsg19\nF1337963609.9191821\nsba(iOWContexts\nContext\np54\n(dp55\ng17\nS''\nsg18\nS''\nsg19\nF1337963609.9191821\nsg20\nS'/home/ciopper90/tesi/Source/audio.tab'\np56\nsba(iOWContexts\nContext\np57\n(dp58\ng17\nS''\nsg18\nS''\nsg19\nF1337178911.487359\nsg20\nS'/home/ciopper90/tesi/Source/audio.tab'\np59\nsba(iOWContexts\nContext\np60\n(dp61\ng18\nS''\nsg17\nS''\nsg20\nS'/home/ciopper90/tesi/Source/audio.tab'\np62\nsg19\nF1337178911.487359\nsba(iOWContexts\nContext\np63\n(dp64\ng18\nS''\nsg17\nS''\nsg20\ng59\nsg19\nF1336825731.085942\nsba(iOWContexts\nContext\np65\n(dp66\ng17\nS''\nsg18\nS''\nsg19\nF1336825731.085942\nsg20\nS'/home/ciopper90/tesi/Source/audio.tab'\np67\nsba(iOWContexts\nContext\np68\n(dp69\ng17\nS''\nsg18\nS''\nsg19\nF1336825731.085942\nsg20\ng62\nsba(iOWContexts\nContext\np70\n(dp71\ng18\nS''\nsg17\nS''\nsg20\nS'/home/ciopper90/tesi/Source/audio.tab'\np72\nsg19\nF1336825731.085942\nsba(iOWContexts\nContext\np73\n(dp74\ng18\nS''\nsg17\nS''\nsg20\nS'/home/ciopper90/tesi/Source/audio.tab'\np75\nsg19\nF1336825721.949506\nsba(iOWContexts\nContext\np76\n(dp77\ng17\nS''\nsg18\nS''\nsg19\nF1336825721.949506\nsg20\nS'/home/ciopper90/tesi/Source/audio.tab'\np78\nsba(iOWContexts\nContext\np79\n(dp80\ng17\nS''\nsg18\nS''\nsg19\nF1336825721.949506\nsg20\nS'/home/ciopper90/tesi/Source/audio.tab'\np81\nsba(iOWContexts\nContext\np82\n(dp83\ng18\nS''\nsg17\nS''\nsg20\nS'/home/ciopper90/tesi/Source/audio.tab'\np84\nsg19\nF1336825721.949506\nsba(iOWContexts\nContext\np85\n(dp86\ng17\nS''\nsg18\nS''\nsg19\nF1336825721.7724559\nsg20\nS'/home/ciopper90/tesi/Source/audio.tab'\np87\nsba(iOWContexts\nContext\np88\n(dp89\ng18\nS''\nsg17\nS''\nsg20\nS'/home/ciopper90/tesi/Source/audio.tab'\np90\nsg19\nF1336825721.7724559\nsba(iOWContexts\nContext\np91\n(dp92\ng18\nS''\nsg17\nS''\nsg20\nS'/home/ciopper90/tesi/Source/audio.tab'\np93\nsg19\nF1336825721.7724559\nsba(iOWContexts\nContext\np94\n(dp95\ng17\nS''\nsg18\nS''\nsg19\nF1336825721.7724559\nsg20\nS'/home/ciopper90/tesi/Source/audio.tab'\np96\nsba(iOWContexts\nContext\np97\n(dp98\ng18\nS''\nsg17\nS''\nsg20\nS''\nsg19\nF1336814997.170311\nsba(iOWContexts\nContext\np99\n(dp100\ng18\nS''\nsg17\nS''\nsg20\nS''\nsg19\nF1336814997.170311\nsba(iOWContexts\nContext\np101\n(dp102\ng17\nS''\nsg18\nS''\nsg19\nF1336814997.170311\nsg20\nS''\nsba(iOWContexts\nContext\np103\n(dp104\ng17\nS''\nsg18\nS''\nsg19\nF1336814997.170311\nsg20\nS''\nsba(iOWContexts\nContext\np105\n(dp106\ng17\nS''\nsg18\nS''\nsg19\nF1336814997.170311\nsg20\nS''\nsba(iOWContexts\nContext\np107\n(dp108\ng17\nS''\nsg18\nS''\nsg19\nF1336814997.170311\nsg20\nS''\nsba(iOWContexts\nContext\np109\n(dp110\ng18\nS''\nsg17\nS''\nsg20\nS''\nsg19\nF1336814997.170311\nsba(iOWContexts\nContext\np111\n(dp112\ng18\nS''\nsg17\nS''\nsg20\nS''\nsg19\nF1336814997.170311\nsba(iOWContexts\nContext\np113\n(dp114\ng17\nS''\nsg18\nS''\nsg19\nF1336814997.170311\nsg20\nS''\nsba(iOWContexts\nContext\np115\n(dp116\ng17\nS''\nsg18\nS''\nsg19\nF1336814997.170311\nsg20\nS''\nsba(iOWContexts\nContext\np117\n(dp118\ng18\nS''\nsg17\nS''\nsg20\nS''\nsg19\nF1336814997.170311\nsba(iOWContexts\nContext\np119\n(dp120\ng18\nS''\nsg17\nS''\nsg20\nS''\nsg19\nF1336814997.170311\nsba(iOWContexts\nContext\np121\n(dp122\ng18\nS''\nsg17\nS''\nsg20\nS''\nsg19\nF1336814997.170311\nsba(iOWContexts\nContext\np123\n(dp124\ng18\nS''\nsg17\nS''\nsg20\nS''\nsg19\nF1336814997.170311\nsba(iOWContexts\nContext\np125\n(dp126\ng17\nS''\nsg18\nS''\nsg19\nF1336814997.170311\nsg20\nS''\nsba(iOWContexts\nContext\np127\n(dp128\ng17\nS''\nsg18\nS''\nsg19\nF1336814997.170311\nsg20\nS''\nsba(iOWContexts\nContext\np129\n(dp130\ng18\nS''\nsg17\nS''\nsg20\nS'/home/ciopper90/test.tab'\np131\nsg19\nF1336814988.61605\nsba(iOWContexts\nContext\np132\n(dp133\ng18\nS''\nsg17\nS''\nsg20\nS'/home/ciopper90/test.tab'\np134\nsg19\nF1336814988.61605\nsba(iOWContexts\nContext\np135\n(dp136\ng17\nS''\nsg18\nS''\nsg19\nF1336814988.61605\nsg20\nS'/home/ciopper90/test.tab'\np137\nsba(iOWContexts\nContext\np138\n(dp139\ng17\nS''\nsg18\nS''\nsg19\nF1336814988.61605\nsg20\nS'/home/ciopper90/test.tab'\np140\nsbasS'recentFiles'\np141\n(lp142\nS'/home/ciopper90/sound-unimore/source/dataset.tab'\np143\nas."
p15
sS'k Nearest Neighbours'
p16
S"(dp1\nS'normalize'\np2\nI1\nsS'widgetShown'\np3\nNsS'name'\np4\nS'kNN'\np5\nsS'ranks'\np6\nI0\nsS'widgetHeight'\np7\nNsS'k'\nI5\nsS'widgetYPosition'\np8\nNsS'ignoreUnknowns'\np9\nI0\nsS'metrics'\np10\nI0\nsS'savedWidgetGeometry'\np11\nNsS'widgetWidth'\np12\nNsS'widgetXPosition'\np13\nNs."
p17
sS'Classification Tree'
p18
S"(dp1\nS'subset'\np2\nI0\nsS'postMaj'\np3\nI1\nsS'widgetXPosition'\np4\nNsS'widgetYPosition'\np5\nNsS'postMPruning'\np6\nI1\nsS'relK'\np7\nI5\nsS'widgetWidth'\np8\nNsS'relM'\np9\nI100\nsS'preNodeInstP'\np10\nI5\nsS'preLeafInst'\np11\nI1\nsS'widgetHeight'\np12\nNsS'limitDepth'\np13\nI00\nsS'savedWidgetGeometry'\np14\nNsS'estim'\np15\nI0\nsS'bin'\np16\nI0\nsS'widgetShown'\np17\nNsS'postM'\np18\nF2\nsS'maxDepth'\np19\nI100\nsS'preLeafInstP'\np20\nI2\nsS'preNodeInst'\np21\nI0\nsS'preNodeMaj'\np22\nI0\nsS'preNodeMajP'\np23\nI95\nsS'name'\np24\nS'Classification Tree'\np25\ns."
p19
s.